ARM GAS  C:\Users\igorn\AppData\Local\Temp\ccIbpDFb.s 			page 1


   1              		.cpu cortex-m3
   2              		.arch armv7-m
   3              		.fpu softvfp
   4              		.eabi_attribute 20, 1
   5              		.eabi_attribute 21, 1
   6              		.eabi_attribute 23, 3
   7              		.eabi_attribute 24, 1
   8              		.eabi_attribute 25, 1
   9              		.eabi_attribute 26, 1
  10              		.eabi_attribute 30, 1
  11              		.eabi_attribute 34, 1
  12              		.eabi_attribute 18, 4
  13              		.file	"NOS_Flash.c"
  14              		.text
  15              	.Ltext0:
  16              		.cfi_sections	.debug_frame
  17              		.file 1 "Core/Src/NOS_Flash.c"
  18              		.section	.text.NOS_Flash_Save_Block,"ax",%progbits
  19              		.align	1
  20              		.global	NOS_Flash_Save_Block
  21              		.syntax unified
  22              		.thumb
  23              		.thumb_func
  25              	NOS_Flash_Save_Block:
  26              	.LVL0:
  27              	.LFB65:
   1:Core/Src/NOS_Flash.c **** #include "NOS_Flash.h"
   2:Core/Src/NOS_Flash.c **** 
   3:Core/Src/NOS_Flash.c **** void NOS_Flash_Save_Block(void* pointer, uint32_t address,uint32_t offset,size_t size)
   4:Core/Src/NOS_Flash.c **** {
  28              		.loc 1 4 1 view -0
  29              		.cfi_startproc
  30              		@ args = 0, pretend = 0, frame = 32
  31              		@ frame_needed = 1, uses_anonymous_args = 0
  32              		.loc 1 4 1 is_stmt 0 view .LVU1
  33 0000 F0B5     		push	{r4, r5, r6, r7, lr}
  34              		.cfi_def_cfa_offset 20
  35              		.cfi_offset 4, -20
  36              		.cfi_offset 5, -16
  37              		.cfi_offset 6, -12
  38              		.cfi_offset 7, -8
  39              		.cfi_offset 14, -4
  40 0002 89B0     		sub	sp, sp, #36
  41              		.cfi_def_cfa_offset 56
  42 0004 00AF     		add	r7, sp, #0
  43              		.cfi_def_cfa_register 7
  44 0006 0D46     		mov	r5, r1
  45 0008 1646     		mov	r6, r2
   5:Core/Src/NOS_Flash.c ****     uint32_t* data = pointer;
  46              		.loc 1 5 5 is_stmt 1 view .LVU2
  47              	.LVL1:
   6:Core/Src/NOS_Flash.c **** 
   7:Core/Src/NOS_Flash.c ****     int u32_count = size / 4;
  48              		.loc 1 7 5 view .LVU3
  49              		.loc 1 7 26 is_stmt 0 view .LVU4
  50 000a 9908     		lsrs	r1, r3, #2
  51              	.LVL2:
ARM GAS  C:\Users\igorn\AppData\Local\Temp\ccIbpDFb.s 			page 2


   8:Core/Src/NOS_Flash.c **** 
   9:Core/Src/NOS_Flash.c **** 	uint32_t data_to_flash[u32_count];
  52              		.loc 1 9 2 is_stmt 1 view .LVU5
  53              		.loc 1 9 11 is_stmt 0 view .LVU6
  54 000c 23F00303 		bic	r3, r3, #3
  55              	.LVL3:
  56              		.loc 1 9 11 view .LVU7
  57 0010 0733     		adds	r3, r3, #7
  58 0012 23F00703 		bic	r3, r3, #7
  59 0016 ADEB030D 		sub	sp, sp, r3
  60 001a 6C46     		mov	r4, sp
  61              	.LVL4:
  10:Core/Src/NOS_Flash.c **** 
  11:Core/Src/NOS_Flash.c **** 	for(int i = 0; i < u32_count; i++)
  62              		.loc 1 11 2 is_stmt 1 view .LVU8
  63              	.LBB2:
  64              		.loc 1 11 6 view .LVU9
  65              		.loc 1 11 10 is_stmt 0 view .LVU10
  66 001c 0023     		movs	r3, #0
  67              		.loc 1 11 2 view .LVU11
  68 001e 04E0     		b	.L2
  69              	.LVL5:
  70              	.L3:
  12:Core/Src/NOS_Flash.c **** 	{
  13:Core/Src/NOS_Flash.c **** 		data_to_flash[i] = *data;
  71              		.loc 1 13 3 is_stmt 1 discriminator 3 view .LVU12
  72              		.loc 1 13 22 is_stmt 0 discriminator 3 view .LVU13
  73 0020 50F8042B 		ldr	r2, [r0], #4
  74              	.LVL6:
  75              		.loc 1 13 20 discriminator 3 view .LVU14
  76 0024 44F82320 		str	r2, [r4, r3, lsl #2]
  14:Core/Src/NOS_Flash.c **** 		data++;
  77              		.loc 1 14 3 is_stmt 1 discriminator 3 view .LVU15
  78              	.LVL7:
  11:Core/Src/NOS_Flash.c **** 	{
  79              		.loc 1 11 33 discriminator 3 view .LVU16
  80 0028 0133     		adds	r3, r3, #1
  81              	.LVL8:
  82              	.L2:
  11:Core/Src/NOS_Flash.c **** 	{
  83              		.loc 1 11 19 discriminator 1 view .LVU17
  84 002a 8B42     		cmp	r3, r1
  85 002c F8DB     		blt	.L3
  11:Core/Src/NOS_Flash.c **** 	{
  86              		.loc 1 11 19 is_stmt 0 discriminator 1 view .LVU18
  87              	.LBE2:
  15:Core/Src/NOS_Flash.c **** 	}
  16:Core/Src/NOS_Flash.c **** 
  17:Core/Src/NOS_Flash.c **** 	HAL_FLASH_Unlock();
  88              		.loc 1 17 2 is_stmt 1 view .LVU19
  89 002e FFF7FEFF 		bl	HAL_FLASH_Unlock
  90              	.LVL9:
  18:Core/Src/NOS_Flash.c **** 
  19:Core/Src/NOS_Flash.c **** 
  20:Core/Src/NOS_Flash.c **** 	HAL_FLASH_OB_Unlock();
  91              		.loc 1 20 2 view .LVU20
  92 0032 FFF7FEFF 		bl	HAL_FLASH_OB_Unlock
ARM GAS  C:\Users\igorn\AppData\Local\Temp\ccIbpDFb.s 			page 3


  93              	.LVL10:
  21:Core/Src/NOS_Flash.c **** 
  22:Core/Src/NOS_Flash.c **** 
  23:Core/Src/NOS_Flash.c **** 	FLASH_EraseInitTypeDef EraseInitStruct;
  94              		.loc 1 23 2 view .LVU21
  24:Core/Src/NOS_Flash.c **** 	EraseInitStruct.TypeErase = FLASH_TYPEERASE_PAGES;
  95              		.loc 1 24 2 view .LVU22
  96              		.loc 1 24 28 is_stmt 0 view .LVU23
  97 0036 0023     		movs	r3, #0
  98 0038 3B61     		str	r3, [r7, #16]
  25:Core/Src/NOS_Flash.c **** 	EraseInitStruct.PageAddress = address;
  99              		.loc 1 25 2 is_stmt 1 view .LVU24
 100              		.loc 1 25 30 is_stmt 0 view .LVU25
 101 003a BD61     		str	r5, [r7, #24]
  26:Core/Src/NOS_Flash.c **** 	EraseInitStruct.NbPages = 1;
 102              		.loc 1 26 2 is_stmt 1 view .LVU26
 103              		.loc 1 26 26 is_stmt 0 view .LVU27
 104 003c 0122     		movs	r2, #1
 105 003e FA61     		str	r2, [r7, #28]
  27:Core/Src/NOS_Flash.c **** 	uint32_t PageError;
 106              		.loc 1 27 2 is_stmt 1 view .LVU28
  28:Core/Src/NOS_Flash.c **** 
  29:Core/Src/NOS_Flash.c **** 	volatile uint32_t write_cnt=0, index=0;
 107              		.loc 1 29 2 view .LVU29
 108              		.loc 1 29 20 is_stmt 0 view .LVU30
 109 0040 BB60     		str	r3, [r7, #8]
 110              		.loc 1 29 33 view .LVU31
 111 0042 7B60     		str	r3, [r7, #4]
  30:Core/Src/NOS_Flash.c **** 
  31:Core/Src/NOS_Flash.c **** 	volatile HAL_StatusTypeDef status;
 112              		.loc 1 31 2 is_stmt 1 view .LVU32
  32:Core/Src/NOS_Flash.c **** 	status = HAL_FLASHEx_Erase(&EraseInitStruct, &PageError);
 113              		.loc 1 32 2 view .LVU33
 114              		.loc 1 32 11 is_stmt 0 view .LVU34
 115 0044 07F10C01 		add	r1, r7, #12
 116 0048 07F11000 		add	r0, r7, #16
 117 004c FFF7FEFF 		bl	HAL_FLASHEx_Erase
 118              	.LVL11:
 119              		.loc 1 32 9 view .LVU35
 120 0050 F870     		strb	r0, [r7, #3]
  33:Core/Src/NOS_Flash.c **** 	
  34:Core/Src/NOS_Flash.c **** 	while(index < 8)
 121              		.loc 1 34 2 is_stmt 1 view .LVU36
 122              	.L5:
 123              		.loc 1 34 14 view .LVU37
 124 0052 7B68     		ldr	r3, [r7, #4]
 125 0054 072B     		cmp	r3, #7
 126 0056 17D8     		bhi	.L9
  35:Core/Src/NOS_Flash.c **** 	{
  36:Core/Src/NOS_Flash.c **** 		if (status == HAL_OK)
 127              		.loc 1 36 3 view .LVU38
 128              		.loc 1 36 14 is_stmt 0 view .LVU39
 129 0058 FB78     		ldrb	r3, [r7, #3]	@ zero_extendqisi2
 130              		.loc 1 36 6 view .LVU40
 131 005a 002B     		cmp	r3, #0
 132 005c F9D1     		bne	.L5
  37:Core/Src/NOS_Flash.c **** 		{
ARM GAS  C:\Users\igorn\AppData\Local\Temp\ccIbpDFb.s 			page 4


  38:Core/Src/NOS_Flash.c **** 			status = HAL_FLASH_Program(FLASH_TYPEPROGRAM_WORD, address+write_cnt+offset, data_to_flash[index
 133              		.loc 1 38 4 is_stmt 1 view .LVU41
 134              		.loc 1 38 62 is_stmt 0 view .LVU42
 135 005e B968     		ldr	r1, [r7, #8]
 136 0060 2944     		add	r1, r1, r5
 137              		.loc 1 38 94 view .LVU43
 138 0062 7B68     		ldr	r3, [r7, #4]
 139              		.loc 1 38 13 view .LVU44
 140 0064 54F82320 		ldr	r2, [r4, r3, lsl #2]
 141 0068 0023     		movs	r3, #0
 142 006a 3144     		add	r1, r1, r6
 143 006c 0220     		movs	r0, #2
 144 006e FFF7FEFF 		bl	HAL_FLASH_Program
 145              	.LVL12:
 146              		.loc 1 38 11 view .LVU45
 147 0072 F870     		strb	r0, [r7, #3]
  39:Core/Src/NOS_Flash.c **** 			if(status == HAL_OK)
 148              		.loc 1 39 4 is_stmt 1 view .LVU46
 149              		.loc 1 39 14 is_stmt 0 view .LVU47
 150 0074 FB78     		ldrb	r3, [r7, #3]	@ zero_extendqisi2
 151              		.loc 1 39 6 view .LVU48
 152 0076 002B     		cmp	r3, #0
 153 0078 EBD1     		bne	.L5
  40:Core/Src/NOS_Flash.c **** 			{
  41:Core/Src/NOS_Flash.c **** 				write_cnt += 4;
 154              		.loc 1 41 5 is_stmt 1 view .LVU49
 155              		.loc 1 41 15 is_stmt 0 view .LVU50
 156 007a BB68     		ldr	r3, [r7, #8]
 157 007c 0433     		adds	r3, r3, #4
 158 007e BB60     		str	r3, [r7, #8]
  42:Core/Src/NOS_Flash.c **** 				index++;
 159              		.loc 1 42 5 is_stmt 1 view .LVU51
 160              		.loc 1 42 10 is_stmt 0 view .LVU52
 161 0080 7B68     		ldr	r3, [r7, #4]
 162 0082 0133     		adds	r3, r3, #1
 163 0084 7B60     		str	r3, [r7, #4]
 164 0086 E4E7     		b	.L5
 165              	.L9:
  43:Core/Src/NOS_Flash.c **** 			}
  44:Core/Src/NOS_Flash.c **** 		}
  45:Core/Src/NOS_Flash.c **** 	}
  46:Core/Src/NOS_Flash.c **** 
  47:Core/Src/NOS_Flash.c **** 	HAL_FLASH_OB_Lock();
 166              		.loc 1 47 2 is_stmt 1 view .LVU53
 167 0088 FFF7FEFF 		bl	HAL_FLASH_OB_Lock
 168              	.LVL13:
  48:Core/Src/NOS_Flash.c **** 	HAL_FLASH_Lock();
 169              		.loc 1 48 2 view .LVU54
 170 008c FFF7FEFF 		bl	HAL_FLASH_Lock
 171              	.LVL14:
  49:Core/Src/NOS_Flash.c **** }
 172              		.loc 1 49 1 is_stmt 0 view .LVU55
 173 0090 2437     		adds	r7, r7, #36
 174              		.cfi_def_cfa_offset 20
 175 0092 BD46     		mov	sp, r7
 176              		.cfi_def_cfa_register 13
 177              		@ sp needed
ARM GAS  C:\Users\igorn\AppData\Local\Temp\ccIbpDFb.s 			page 5


 178 0094 F0BD     		pop	{r4, r5, r6, r7, pc}
 179              		.loc 1 49 1 view .LVU56
 180              		.cfi_endproc
 181              	.LFE65:
 183              		.section	.text.NOS_Flash_Load_Block,"ax",%progbits
 184              		.align	1
 185              		.global	NOS_Flash_Load_Block
 186              		.syntax unified
 187              		.thumb
 188              		.thumb_func
 190              	NOS_Flash_Load_Block:
 191              	.LVL15:
 192              	.LFB66:
  50:Core/Src/NOS_Flash.c **** 
  51:Core/Src/NOS_Flash.c **** void NOS_Flash_Load_Block(void* pointer, uint32_t address,uint32_t offset,size_t size)
  52:Core/Src/NOS_Flash.c **** {
 193              		.loc 1 52 1 is_stmt 1 view -0
 194              		.cfi_startproc
 195              		@ args = 0, pretend = 0, frame = 8
 196              		@ frame_needed = 0, uses_anonymous_args = 0
 197              		.loc 1 52 1 is_stmt 0 view .LVU58
 198 0000 10B5     		push	{r4, lr}
 199              		.cfi_def_cfa_offset 8
 200              		.cfi_offset 4, -8
 201              		.cfi_offset 14, -4
 202 0002 82B0     		sub	sp, sp, #8
 203              		.cfi_def_cfa_offset 16
  53:Core/Src/NOS_Flash.c ****     uint32_t* data = pointer;
 204              		.loc 1 53 5 is_stmt 1 view .LVU59
 205              	.LVL16:
  54:Core/Src/NOS_Flash.c **** 
  55:Core/Src/NOS_Flash.c ****     int u32_count = size / 4;
 206              		.loc 1 55 5 view .LVU60
 207              		.loc 1 55 26 is_stmt 0 view .LVU61
 208 0004 9C08     		lsrs	r4, r3, #2
 209              	.LVL17:
  56:Core/Src/NOS_Flash.c **** 
  57:Core/Src/NOS_Flash.c **** 	volatile int read_cnt = 0;
 210              		.loc 1 57 2 is_stmt 1 view .LVU62
 211              		.loc 1 57 15 is_stmt 0 view .LVU63
 212 0006 4FF0000C 		mov	ip, #0
 213 000a CDF804C0 		str	ip, [sp, #4]
  58:Core/Src/NOS_Flash.c **** 
  59:Core/Src/NOS_Flash.c ****     for (int i = 0; i < u32_count; i++)
 214              		.loc 1 59 5 is_stmt 1 view .LVU64
 215              	.LBB3:
 216              		.loc 1 59 10 view .LVU65
 217              	.LVL18:
 218              		.loc 1 59 5 is_stmt 0 view .LVU66
 219 000e 0BE0     		b	.L11
 220              	.LVL19:
 221              	.L12:
  60:Core/Src/NOS_Flash.c ****     {
  61:Core/Src/NOS_Flash.c **** 		data[i] = *(uint32_t*)(address + read_cnt+offset);
 222              		.loc 1 61 3 is_stmt 1 discriminator 3 view .LVU67
 223              		.loc 1 61 34 is_stmt 0 discriminator 3 view .LVU68
 224 0010 019B     		ldr	r3, [sp, #4]
ARM GAS  C:\Users\igorn\AppData\Local\Temp\ccIbpDFb.s 			page 6


 225 0012 03EB010E 		add	lr, r3, r1
 226              		.loc 1 61 13 discriminator 3 view .LVU69
 227 0016 5EF80230 		ldr	r3, [lr, r2]
 228 001a 40F82C30 		str	r3, [r0, ip, lsl #2]
  62:Core/Src/NOS_Flash.c **** 		read_cnt += 4;
 229              		.loc 1 62 3 is_stmt 1 discriminator 3 view .LVU70
 230              		.loc 1 62 12 is_stmt 0 discriminator 3 view .LVU71
 231 001e 019B     		ldr	r3, [sp, #4]
 232 0020 0433     		adds	r3, r3, #4
 233 0022 0193     		str	r3, [sp, #4]
  59:Core/Src/NOS_Flash.c ****     {
 234              		.loc 1 59 37 is_stmt 1 discriminator 3 view .LVU72
 235 0024 0CF1010C 		add	ip, ip, #1
 236              	.LVL20:
 237              	.L11:
  59:Core/Src/NOS_Flash.c ****     {
 238              		.loc 1 59 23 discriminator 1 view .LVU73
 239 0028 A445     		cmp	ip, r4
 240 002a F1DB     		blt	.L12
 241              	.LBE3:
  63:Core/Src/NOS_Flash.c ****     }
  64:Core/Src/NOS_Flash.c **** }
 242              		.loc 1 64 1 is_stmt 0 view .LVU74
 243 002c 02B0     		add	sp, sp, #8
 244              		.cfi_def_cfa_offset 8
 245              		@ sp needed
 246 002e 10BD     		pop	{r4, pc}
 247              		.loc 1 64 1 view .LVU75
 248              		.cfi_endproc
 249              	.LFE66:
 251              		.section	.text.NOS_Flash_Validate_Block,"ax",%progbits
 252              		.align	1
 253              		.global	NOS_Flash_Validate_Block
 254              		.syntax unified
 255              		.thumb
 256              		.thumb_func
 258              	NOS_Flash_Validate_Block:
 259              	.LVL21:
 260              	.LFB67:
  65:Core/Src/NOS_Flash.c **** 
  66:Core/Src/NOS_Flash.c **** bool NOS_Flash_Validate_Block(uint32_t address,size_t size)
  67:Core/Src/NOS_Flash.c **** {
 261              		.loc 1 67 1 is_stmt 1 view -0
 262              		.cfi_startproc
 263              		@ args = 0, pretend = 0, frame = 0
 264              		@ frame_needed = 0, uses_anonymous_args = 0
 265              		@ link register save eliminated.
  68:Core/Src/NOS_Flash.c **** 	bool validated = true;
 266              		.loc 1 68 2 view .LVU77
  69:Core/Src/NOS_Flash.c **** 	int _size = size / 4;
 267              		.loc 1 69 2 view .LVU78
 268              		.loc 1 69 19 is_stmt 0 view .LVU79
 269 0000 8908     		lsrs	r1, r1, #2
 270              	.LVL22:
  70:Core/Src/NOS_Flash.c **** 	
  71:Core/Src/NOS_Flash.c **** 	for(int i = 0; i < _size; i++)
 271              		.loc 1 71 2 is_stmt 1 view .LVU80
ARM GAS  C:\Users\igorn\AppData\Local\Temp\ccIbpDFb.s 			page 7


 272              	.LBB4:
 273              		.loc 1 71 6 view .LVU81
 274              		.loc 1 71 10 is_stmt 0 view .LVU82
 275 0002 0023     		movs	r3, #0
 276              		.loc 1 71 2 view .LVU83
 277 0004 00E0     		b	.L15
 278              	.LVL23:
 279              	.L16:
  72:Core/Src/NOS_Flash.c **** 	{
  73:Core/Src/NOS_Flash.c **** 		if(*(uint32_t*)address == 0xFFFFFFFF)
 280              		.loc 1 73 3 is_stmt 1 view .LVU84
  71:Core/Src/NOS_Flash.c **** 	{
 281              		.loc 1 71 29 view .LVU85
 282 0006 0133     		adds	r3, r3, #1
 283              	.LVL24:
 284              	.L15:
  71:Core/Src/NOS_Flash.c **** 	{
 285              		.loc 1 71 19 discriminator 1 view .LVU86
 286 0008 8B42     		cmp	r3, r1
 287 000a FCDB     		blt	.L16
 288              	.LVL25:
  71:Core/Src/NOS_Flash.c **** 	{
 289              		.loc 1 71 19 is_stmt 0 discriminator 1 view .LVU87
 290              	.LBE4:
  74:Core/Src/NOS_Flash.c **** 		{
  75:Core/Src/NOS_Flash.c **** 			validated = false;
  76:Core/Src/NOS_Flash.c **** 		}
  77:Core/Src/NOS_Flash.c **** 	}
  78:Core/Src/NOS_Flash.c **** }...
 291              		.loc 1 78 1 view .LVU88
 292 000c 7047     		bx	lr
 293              		.cfi_endproc
 294              	.LFE67:
 296              		.text
 297              	.Letext0:
 298              		.file 2 "c:\\users\\igorn\\appdata\\roaming\\code\\user\\globalstorage\\bmd.stm32-for-vscode\\@xpa
 299              		.file 3 "c:\\users\\igorn\\appdata\\roaming\\code\\user\\globalstorage\\bmd.stm32-for-vscode\\@xpa
 300              		.file 4 "c:\\users\\igorn\\appdata\\roaming\\code\\user\\globalstorage\\bmd.stm32-for-vscode\\@xpa
 301              		.file 5 "Drivers/STM32F1xx_HAL_Driver/Inc/stm32f1xx_hal_def.h"
 302              		.file 6 "Drivers/STM32F1xx_HAL_Driver/Inc/stm32f1xx_hal_flash_ex.h"
 303              		.file 7 "Drivers/STM32F1xx_HAL_Driver/Inc/stm32f1xx_hal_flash.h"
ARM GAS  C:\Users\igorn\AppData\Local\Temp\ccIbpDFb.s 			page 8

