ARM GAS  C:\Users\igorn\AppData\Local\Temp\cco5MKdE.s 			page 1


   1              		.cpu cortex-m3
   2              		.arch armv7-m
   3              		.fpu softvfp
   4              		.eabi_attribute 20, 1
   5              		.eabi_attribute 21, 1
   6              		.eabi_attribute 23, 3
   7              		.eabi_attribute 24, 1
   8              		.eabi_attribute 25, 1
   9              		.eabi_attribute 26, 1
  10              		.eabi_attribute 30, 1
  11              		.eabi_attribute 34, 1
  12              		.eabi_attribute 18, 4
  13              		.file	"NOS_WS2812B_Strip.c"
  14              		.text
  15              	.Ltext0:
  16              		.cfi_sections	.debug_frame
  17              		.file 1 "Core/Src/NOS_WS2812B_Strip.c"
  18              		.section	.text.NOS_WS2812B_Strip_FullInit,"ax",%progbits
  19              		.align	1
  20              		.global	NOS_WS2812B_Strip_FullInit
  21              		.syntax unified
  22              		.thumb
  23              		.thumb_func
  25              	NOS_WS2812B_Strip_FullInit:
  26              	.LVL0:
  27              	.LFB65:
   1:Core/Src/NOS_WS2812B_Strip.c **** #include "NOS_WS2812B_Strip.h"
   2:Core/Src/NOS_WS2812B_Strip.c **** #include "NOS_BaseColors.h"
   3:Core/Src/NOS_WS2812B_Strip.c **** #include "WS2812B_Effects.h"
   4:Core/Src/NOS_WS2812B_Strip.c **** 
   5:Core/Src/NOS_WS2812B_Strip.c **** void NOS_WS2812B_Strip_FullInit(WS2812B_Strip* strip,uint8_t* buff,PixelColor* pixels,int lenght)
   6:Core/Src/NOS_WS2812B_Strip.c **** {
  28              		.loc 1 6 1 view -0
  29              		.cfi_startproc
  30              		@ args = 0, pretend = 0, frame = 0
  31              		@ frame_needed = 0, uses_anonymous_args = 0
  32              		@ link register save eliminated.
   7:Core/Src/NOS_WS2812B_Strip.c ****     strip->pixels = pixels;
  33              		.loc 1 7 5 view .LVU1
  34              		.loc 1 7 19 is_stmt 0 view .LVU2
  35 0000 4260     		str	r2, [r0, #4]
   8:Core/Src/NOS_WS2812B_Strip.c ****     strip->frameBuffer = buff;
  36              		.loc 1 8 5 is_stmt 1 view .LVU3
  37              		.loc 1 8 24 is_stmt 0 view .LVU4
  38 0002 0160     		str	r1, [r0]
   9:Core/Src/NOS_WS2812B_Strip.c ****     strip->pixelCount = lenght;
  39              		.loc 1 9 5 is_stmt 1 view .LVU5
  40              		.loc 1 9 23 is_stmt 0 view .LVU6
  41 0004 8360     		str	r3, [r0, #8]
  10:Core/Src/NOS_WS2812B_Strip.c ****     strip->bright = 100;
  42              		.loc 1 10 5 is_stmt 1 view .LVU7
  43              		.loc 1 10 19 is_stmt 0 view .LVU8
  44 0006 6423     		movs	r3, #100
  45              	.LVL1:
  46              		.loc 1 10 19 view .LVU9
  47 0008 C360     		str	r3, [r0, #12]
  11:Core/Src/NOS_WS2812B_Strip.c ****     strip->effectsCounter = 0;
ARM GAS  C:\Users\igorn\AppData\Local\Temp\cco5MKdE.s 			page 2


  48              		.loc 1 11 5 is_stmt 1 view .LVU10
  49              		.loc 1 11 27 is_stmt 0 view .LVU11
  50 000a 0023     		movs	r3, #0
  51 000c 80F85031 		strb	r3, [r0, #336]
  12:Core/Src/NOS_WS2812B_Strip.c **** }
  52              		.loc 1 12 1 view .LVU12
  53 0010 7047     		bx	lr
  54              		.cfi_endproc
  55              	.LFE65:
  57              		.section	.text.NOS_WS2812B_Strip_CoreSetPixel,"ax",%progbits
  58              		.align	1
  59              		.global	NOS_WS2812B_Strip_CoreSetPixel
  60              		.syntax unified
  61              		.thumb
  62              		.thumb_func
  64              	NOS_WS2812B_Strip_CoreSetPixel:
  65              	.LVL2:
  66              	.LFB66:
  13:Core/Src/NOS_WS2812B_Strip.c **** 
  14:Core/Src/NOS_WS2812B_Strip.c **** void NOS_WS2812B_Strip_CoreSetPixel(WS2812B_Strip* strip,int pixelPos,uint8_t r, uint8_t g, uint8_t
  15:Core/Src/NOS_WS2812B_Strip.c **** {
  67              		.loc 1 15 1 is_stmt 1 view -0
  68              		.cfi_startproc
  69              		@ args = 4, pretend = 0, frame = 0
  70              		@ frame_needed = 0, uses_anonymous_args = 0
  71              		@ link register save eliminated.
  72              		.loc 1 15 1 is_stmt 0 view .LVU14
  73 0000 10B4     		push	{r4}
  74              		.cfi_def_cfa_offset 4
  75              		.cfi_offset 4, -4
  16:Core/Src/NOS_WS2812B_Strip.c ****     if(strip->frameBuffer != NULL && pixelPos <= strip->pixelCount)
  76              		.loc 1 16 5 is_stmt 1 view .LVU15
  77              		.loc 1 16 13 is_stmt 0 view .LVU16
  78 0002 0468     		ldr	r4, [r0]
  79              		.loc 1 16 7 view .LVU17
  80 0004 74B1     		cbz	r4, .L2
  81              		.loc 1 16 35 discriminator 1 view .LVU18
  82 0006 D0F808C0 		ldr	ip, [r0, #8]
  83 000a 8C45     		cmp	ip, r1
  84 000c 0ADB     		blt	.L2
  17:Core/Src/NOS_WS2812B_Strip.c ****     {
  18:Core/Src/NOS_WS2812B_Strip.c ****         strip->frameBuffer[pixelPos * 3] = r;
  85              		.loc 1 18 9 is_stmt 1 view .LVU19
  86              		.loc 1 18 37 is_stmt 0 view .LVU20
  87 000e 01EB4101 		add	r1, r1, r1, lsl #1
  88              	.LVL3:
  89              		.loc 1 18 42 view .LVU21
  90 0012 6254     		strb	r2, [r4, r1]
  19:Core/Src/NOS_WS2812B_Strip.c ****         strip->frameBuffer[pixelPos * 3 + 1] = g;
  91              		.loc 1 19 9 is_stmt 1 view .LVU22
  92              		.loc 1 19 14 is_stmt 0 view .LVU23
  93 0014 0468     		ldr	r4, [r0]
  94              		.loc 1 19 27 view .LVU24
  95 0016 4A1C     		adds	r2, r1, #1
  96              	.LVL4:
  97              		.loc 1 19 46 view .LVU25
  98 0018 A354     		strb	r3, [r4, r2]
ARM GAS  C:\Users\igorn\AppData\Local\Temp\cco5MKdE.s 			page 3


  20:Core/Src/NOS_WS2812B_Strip.c ****         strip->frameBuffer[pixelPos * 3 + 2] = b;
  99              		.loc 1 20 9 is_stmt 1 view .LVU26
 100              		.loc 1 20 14 is_stmt 0 view .LVU27
 101 001a 0368     		ldr	r3, [r0]
 102              	.LVL5:
 103              		.loc 1 20 27 view .LVU28
 104 001c 0231     		adds	r1, r1, #2
 105              		.loc 1 20 46 view .LVU29
 106 001e 9DF80420 		ldrb	r2, [sp, #4]	@ zero_extendqisi2
 107              	.LVL6:
 108              		.loc 1 20 46 view .LVU30
 109 0022 5A54     		strb	r2, [r3, r1]
 110              	.LVL7:
 111              	.L2:
  21:Core/Src/NOS_WS2812B_Strip.c ****     }
  22:Core/Src/NOS_WS2812B_Strip.c **** }
 112              		.loc 1 22 1 view .LVU31
 113 0024 10BC     		pop	{r4}
 114              		.cfi_restore 4
 115              		.cfi_def_cfa_offset 0
 116              	.LVL8:
 117              		.loc 1 22 1 view .LVU32
 118 0026 7047     		bx	lr
 119              		.cfi_endproc
 120              	.LFE66:
 122              		.section	.text.NOS_WS2812B_Strip_SetPixel,"ax",%progbits
 123              		.align	1
 124              		.global	NOS_WS2812B_Strip_SetPixel
 125              		.syntax unified
 126              		.thumb
 127              		.thumb_func
 129              	NOS_WS2812B_Strip_SetPixel:
 130              	.LVL9:
 131              	.LFB67:
  23:Core/Src/NOS_WS2812B_Strip.c **** 
  24:Core/Src/NOS_WS2812B_Strip.c **** void NOS_WS2812B_Strip_SetPixel(WS2812B_Strip* strip,int pixelPos,uint8_t r, uint8_t g, uint8_t b)
  25:Core/Src/NOS_WS2812B_Strip.c **** {
 132              		.loc 1 25 1 is_stmt 1 view -0
 133              		.cfi_startproc
 134              		@ args = 4, pretend = 0, frame = 0
 135              		@ frame_needed = 0, uses_anonymous_args = 0
 136              		@ link register save eliminated.
 137              		.loc 1 25 1 is_stmt 0 view .LVU34
 138 0000 10B4     		push	{r4}
 139              		.cfi_def_cfa_offset 4
 140              		.cfi_offset 4, -4
  26:Core/Src/NOS_WS2812B_Strip.c ****     if(strip->pixels != NULL && pixelPos <= strip->pixelCount)
 141              		.loc 1 26 5 is_stmt 1 view .LVU35
 142              		.loc 1 26 13 is_stmt 0 view .LVU36
 143 0002 4468     		ldr	r4, [r0, #4]
 144              		.loc 1 26 7 view .LVU37
 145 0004 74B1     		cbz	r4, .L5
 146              		.loc 1 26 30 discriminator 1 view .LVU38
 147 0006 D0F808C0 		ldr	ip, [r0, #8]
 148 000a 8C45     		cmp	ip, r1
 149 000c 0ADB     		blt	.L5
  27:Core/Src/NOS_WS2812B_Strip.c ****     {
ARM GAS  C:\Users\igorn\AppData\Local\Temp\cco5MKdE.s 			page 4


  28:Core/Src/NOS_WS2812B_Strip.c ****         strip->pixels[pixelPos].R = r;
 150              		.loc 1 28 9 is_stmt 1 view .LVU39
 151              		.loc 1 28 22 is_stmt 0 view .LVU40
 152 000e 01EB4101 		add	r1, r1, r1, lsl #1
 153              	.LVL10:
 154              		.loc 1 28 35 view .LVU41
 155 0012 6254     		strb	r2, [r4, r1]
  29:Core/Src/NOS_WS2812B_Strip.c ****         strip->pixels[pixelPos].G = g;
 156              		.loc 1 29 9 is_stmt 1 view .LVU42
 157              		.loc 1 29 14 is_stmt 0 view .LVU43
 158 0014 4268     		ldr	r2, [r0, #4]
 159              	.LVL11:
 160              		.loc 1 29 22 view .LVU44
 161 0016 0A44     		add	r2, r2, r1
 162              		.loc 1 29 35 view .LVU45
 163 0018 5370     		strb	r3, [r2, #1]
 164              	.LVL12:
  30:Core/Src/NOS_WS2812B_Strip.c ****         strip->pixels[pixelPos].B = b;
 165              		.loc 1 30 9 is_stmt 1 view .LVU46
 166              		.loc 1 30 14 is_stmt 0 view .LVU47
 167 001a 4368     		ldr	r3, [r0, #4]
 168              	.LVL13:
 169              		.loc 1 30 22 view .LVU48
 170 001c 0B44     		add	r3, r3, r1
 171              		.loc 1 30 35 view .LVU49
 172 001e 9DF80420 		ldrb	r2, [sp, #4]	@ zero_extendqisi2
 173              	.LVL14:
 174              		.loc 1 30 35 view .LVU50
 175 0022 9A70     		strb	r2, [r3, #2]
 176              	.L5:
  31:Core/Src/NOS_WS2812B_Strip.c ****     }         
  32:Core/Src/NOS_WS2812B_Strip.c **** }
 177              		.loc 1 32 1 view .LVU51
 178 0024 10BC     		pop	{r4}
 179              		.cfi_restore 4
 180              		.cfi_def_cfa_offset 0
 181              	.LVL15:
 182              		.loc 1 32 1 view .LVU52
 183 0026 7047     		bx	lr
 184              		.cfi_endproc
 185              	.LFE67:
 187              		.section	.text.NOS_WS2812B_Strip_Clear,"ax",%progbits
 188              		.align	1
 189              		.global	NOS_WS2812B_Strip_Clear
 190              		.syntax unified
 191              		.thumb
 192              		.thumb_func
 194              	NOS_WS2812B_Strip_Clear:
 195              	.LVL16:
 196              	.LFB68:
  33:Core/Src/NOS_WS2812B_Strip.c **** 
  34:Core/Src/NOS_WS2812B_Strip.c **** void NOS_WS2812B_Strip_Clear(WS2812B_Strip* strip)
  35:Core/Src/NOS_WS2812B_Strip.c **** {
 197              		.loc 1 35 1 is_stmt 1 view -0
 198              		.cfi_startproc
 199              		@ args = 0, pretend = 0, frame = 0
 200              		@ frame_needed = 0, uses_anonymous_args = 0
ARM GAS  C:\Users\igorn\AppData\Local\Temp\cco5MKdE.s 			page 5


 201              		.loc 1 35 1 is_stmt 0 view .LVU54
 202 0000 30B5     		push	{r4, r5, lr}
 203              		.cfi_def_cfa_offset 12
 204              		.cfi_offset 4, -12
 205              		.cfi_offset 5, -8
 206              		.cfi_offset 14, -4
 207 0002 83B0     		sub	sp, sp, #12
 208              		.cfi_def_cfa_offset 24
 209 0004 0546     		mov	r5, r0
  36:Core/Src/NOS_WS2812B_Strip.c ****     for(int i = 0; i < strip->pixelCount; i++)
 210              		.loc 1 36 5 is_stmt 1 view .LVU55
 211              	.LBB2:
 212              		.loc 1 36 9 view .LVU56
 213              	.LVL17:
 214              		.loc 1 36 13 is_stmt 0 view .LVU57
 215 0006 0024     		movs	r4, #0
 216              		.loc 1 36 5 view .LVU58
 217 0008 07E0     		b	.L9
 218              	.LVL18:
 219              	.L10:
  37:Core/Src/NOS_WS2812B_Strip.c ****     {
  38:Core/Src/NOS_WS2812B_Strip.c ****         NOS_WS2812B_Strip_SetPixel(strip,i,0,0,0);
 220              		.loc 1 38 9 is_stmt 1 discriminator 3 view .LVU59
 221 000a 0022     		movs	r2, #0
 222 000c 0092     		str	r2, [sp]
 223 000e 1346     		mov	r3, r2
 224 0010 2146     		mov	r1, r4
 225 0012 2846     		mov	r0, r5
 226 0014 FFF7FEFF 		bl	NOS_WS2812B_Strip_SetPixel
 227              	.LVL19:
  36:Core/Src/NOS_WS2812B_Strip.c ****     for(int i = 0; i < strip->pixelCount; i++)
 228              		.loc 1 36 44 discriminator 3 view .LVU60
 229 0018 0134     		adds	r4, r4, #1
 230              	.LVL20:
 231              	.L9:
  36:Core/Src/NOS_WS2812B_Strip.c ****     for(int i = 0; i < strip->pixelCount; i++)
 232              		.loc 1 36 22 discriminator 1 view .LVU61
  36:Core/Src/NOS_WS2812B_Strip.c ****     for(int i = 0; i < strip->pixelCount; i++)
 233              		.loc 1 36 29 is_stmt 0 discriminator 1 view .LVU62
 234 001a AB68     		ldr	r3, [r5, #8]
  36:Core/Src/NOS_WS2812B_Strip.c ****     for(int i = 0; i < strip->pixelCount; i++)
 235              		.loc 1 36 22 discriminator 1 view .LVU63
 236 001c A342     		cmp	r3, r4
 237 001e F4DC     		bgt	.L10
 238              	.LBE2:
  39:Core/Src/NOS_WS2812B_Strip.c ****     }
  40:Core/Src/NOS_WS2812B_Strip.c **** }
 239              		.loc 1 40 1 view .LVU64
 240 0020 03B0     		add	sp, sp, #12
 241              		.cfi_def_cfa_offset 12
 242              		@ sp needed
 243 0022 30BD     		pop	{r4, r5, pc}
 244              		.loc 1 40 1 view .LVU65
 245              		.cfi_endproc
 246              	.LFE68:
 248              		.global	__aeabi_i2f
 249              		.global	__aeabi_fdiv
ARM GAS  C:\Users\igorn\AppData\Local\Temp\cco5MKdE.s 			page 6


 250              		.global	__aeabi_ui2f
 251              		.global	__aeabi_fmul
 252              		.global	__aeabi_f2uiz
 253              		.section	.text.NOS_WS2812B_Strip_Update,"ax",%progbits
 254              		.align	1
 255              		.global	NOS_WS2812B_Strip_Update
 256              		.syntax unified
 257              		.thumb
 258              		.thumb_func
 260              	NOS_WS2812B_Strip_Update:
 261              	.LVL21:
 262              	.LFB69:
  41:Core/Src/NOS_WS2812B_Strip.c **** 
  42:Core/Src/NOS_WS2812B_Strip.c **** void NOS_WS2812B_Strip_Update(WS2812B_Strip* strip)
  43:Core/Src/NOS_WS2812B_Strip.c **** {
 263              		.loc 1 43 1 is_stmt 1 view -0
 264              		.cfi_startproc
 265              		@ args = 0, pretend = 0, frame = 0
 266              		@ frame_needed = 0, uses_anonymous_args = 0
 267              		.loc 1 43 1 is_stmt 0 view .LVU67
 268 0000 2DE9F043 		push	{r4, r5, r6, r7, r8, r9, lr}
 269              		.cfi_def_cfa_offset 28
 270              		.cfi_offset 4, -28
 271              		.cfi_offset 5, -24
 272              		.cfi_offset 6, -20
 273              		.cfi_offset 7, -16
 274              		.cfi_offset 8, -12
 275              		.cfi_offset 9, -8
 276              		.cfi_offset 14, -4
 277 0004 83B0     		sub	sp, sp, #12
 278              		.cfi_def_cfa_offset 40
 279 0006 0746     		mov	r7, r0
  44:Core/Src/NOS_WS2812B_Strip.c ****     float coef = (float)strip->bright / 100;
 280              		.loc 1 44 5 is_stmt 1 view .LVU68
 281              		.loc 1 44 18 is_stmt 0 view .LVU69
 282 0008 C068     		ldr	r0, [r0, #12]
 283              	.LVL22:
 284              		.loc 1 44 18 view .LVU70
 285 000a FFF7FEFF 		bl	__aeabi_i2f
 286              	.LVL23:
 287              		.loc 1 44 11 view .LVU71
 288 000e 1B49     		ldr	r1, .L16
 289 0010 FFF7FEFF 		bl	__aeabi_fdiv
 290              	.LVL24:
 291 0014 8046     		mov	r8, r0
 292              	.LVL25:
  45:Core/Src/NOS_WS2812B_Strip.c ****     for(int i = 0; i < strip->pixelCount; i++)
 293              		.loc 1 45 5 is_stmt 1 view .LVU72
 294              	.LBB3:
 295              		.loc 1 45 9 view .LVU73
 296              		.loc 1 45 13 is_stmt 0 view .LVU74
 297 0016 0024     		movs	r4, #0
 298              		.loc 1 45 5 view .LVU75
 299 0018 29E0     		b	.L13
 300              	.LVL26:
 301              	.L14:
 302              	.LBB4:
ARM GAS  C:\Users\igorn\AppData\Local\Temp\cco5MKdE.s 			page 7


  46:Core/Src/NOS_WS2812B_Strip.c ****     {
  47:Core/Src/NOS_WS2812B_Strip.c ****         uint8_t currR = (float)strip->pixels[i].R * coef;
 303              		.loc 1 47 9 is_stmt 1 discriminator 3 view .LVU76
 304              		.loc 1 47 37 is_stmt 0 discriminator 3 view .LVU77
 305 001a 7A68     		ldr	r2, [r7, #4]
 306              		.loc 1 47 45 discriminator 3 view .LVU78
 307 001c 04EB4403 		add	r3, r4, r4, lsl #1
 308 0020 02EB0309 		add	r9, r2, r3
 309              		.loc 1 47 25 discriminator 3 view .LVU79
 310 0024 D05C     		ldrb	r0, [r2, r3]	@ zero_extendqisi2
 311 0026 FFF7FEFF 		bl	__aeabi_ui2f
 312              	.LVL27:
 313              		.loc 1 47 51 discriminator 3 view .LVU80
 314 002a 4146     		mov	r1, r8
 315 002c FFF7FEFF 		bl	__aeabi_fmul
 316              	.LVL28:
 317              		.loc 1 47 17 discriminator 3 view .LVU81
 318 0030 FFF7FEFF 		bl	__aeabi_f2uiz
 319              	.LVL29:
 320 0034 C5B2     		uxtb	r5, r0
 321              	.LVL30:
  48:Core/Src/NOS_WS2812B_Strip.c ****         uint8_t currG = (float)strip->pixels[i].G * coef;
 322              		.loc 1 48 9 is_stmt 1 discriminator 3 view .LVU82
 323              		.loc 1 48 25 is_stmt 0 discriminator 3 view .LVU83
 324 0036 99F80100 		ldrb	r0, [r9, #1]	@ zero_extendqisi2
 325 003a FFF7FEFF 		bl	__aeabi_ui2f
 326              	.LVL31:
 327              		.loc 1 48 51 discriminator 3 view .LVU84
 328 003e 4146     		mov	r1, r8
 329 0040 FFF7FEFF 		bl	__aeabi_fmul
 330              	.LVL32:
 331              		.loc 1 48 17 discriminator 3 view .LVU85
 332 0044 FFF7FEFF 		bl	__aeabi_f2uiz
 333              	.LVL33:
 334 0048 C6B2     		uxtb	r6, r0
 335              	.LVL34:
  49:Core/Src/NOS_WS2812B_Strip.c ****         uint8_t currB = (float)strip->pixels[i].B * coef;
 336              		.loc 1 49 9 is_stmt 1 discriminator 3 view .LVU86
 337              		.loc 1 49 25 is_stmt 0 discriminator 3 view .LVU87
 338 004a 99F80200 		ldrb	r0, [r9, #2]	@ zero_extendqisi2
 339 004e FFF7FEFF 		bl	__aeabi_ui2f
 340              	.LVL35:
 341              		.loc 1 49 51 discriminator 3 view .LVU88
 342 0052 4146     		mov	r1, r8
 343 0054 FFF7FEFF 		bl	__aeabi_fmul
 344              	.LVL36:
 345              		.loc 1 49 17 discriminator 3 view .LVU89
 346 0058 FFF7FEFF 		bl	__aeabi_f2uiz
 347              	.LVL37:
 348 005c C0B2     		uxtb	r0, r0
 349              	.LVL38:
  50:Core/Src/NOS_WS2812B_Strip.c ****         NOS_WS2812B_Strip_CoreSetPixel(strip,i,currR,currG,currB);
 350              		.loc 1 50 9 is_stmt 1 discriminator 3 view .LVU90
 351 005e 0090     		str	r0, [sp]
 352 0060 3346     		mov	r3, r6
 353 0062 2A46     		mov	r2, r5
 354 0064 2146     		mov	r1, r4
ARM GAS  C:\Users\igorn\AppData\Local\Temp\cco5MKdE.s 			page 8


 355 0066 3846     		mov	r0, r7
 356              	.LVL39:
 357              		.loc 1 50 9 is_stmt 0 discriminator 3 view .LVU91
 358 0068 FFF7FEFF 		bl	NOS_WS2812B_Strip_CoreSetPixel
 359              	.LVL40:
 360              		.loc 1 50 9 discriminator 3 view .LVU92
 361              	.LBE4:
  45:Core/Src/NOS_WS2812B_Strip.c ****     {
 362              		.loc 1 45 44 is_stmt 1 discriminator 3 view .LVU93
 363 006c 0134     		adds	r4, r4, #1
 364              	.LVL41:
 365              	.L13:
  45:Core/Src/NOS_WS2812B_Strip.c ****     {
 366              		.loc 1 45 22 discriminator 1 view .LVU94
  45:Core/Src/NOS_WS2812B_Strip.c ****     {
 367              		.loc 1 45 29 is_stmt 0 discriminator 1 view .LVU95
 368 006e BB68     		ldr	r3, [r7, #8]
  45:Core/Src/NOS_WS2812B_Strip.c ****     {
 369              		.loc 1 45 22 discriminator 1 view .LVU96
 370 0070 A342     		cmp	r3, r4
 371 0072 D2DC     		bgt	.L14
 372              	.LBE3:
  51:Core/Src/NOS_WS2812B_Strip.c ****     }
  52:Core/Src/NOS_WS2812B_Strip.c **** 
  53:Core/Src/NOS_WS2812B_Strip.c **** }
 373              		.loc 1 53 1 view .LVU97
 374 0074 03B0     		add	sp, sp, #12
 375              		.cfi_def_cfa_offset 28
 376              		@ sp needed
 377 0076 BDE8F083 		pop	{r4, r5, r6, r7, r8, r9, pc}
 378              	.LVL42:
 379              	.L17:
 380              		.loc 1 53 1 view .LVU98
 381 007a 00BF     		.align	2
 382              	.L16:
 383 007c 0000C842 		.word	1120403456
 384              		.cfi_endproc
 385              	.LFE69:
 387              		.section	.text.NOS_WS2812B_Strip_ColorFill,"ax",%progbits
 388              		.align	1
 389              		.global	NOS_WS2812B_Strip_ColorFill
 390              		.syntax unified
 391              		.thumb
 392              		.thumb_func
 394              	NOS_WS2812B_Strip_ColorFill:
 395              	.LVL43:
 396              	.LFB71:
  54:Core/Src/NOS_WS2812B_Strip.c **** 
  55:Core/Src/NOS_WS2812B_Strip.c **** void NOS_WS2812B_Strip_TestFill(WS2812B_Strip* strip)
  56:Core/Src/NOS_WS2812B_Strip.c **** {
  57:Core/Src/NOS_WS2812B_Strip.c ****     int currPixel = 0;
  58:Core/Src/NOS_WS2812B_Strip.c ****     int currColor = 0;
  59:Core/Src/NOS_WS2812B_Strip.c ****     
  60:Core/Src/NOS_WS2812B_Strip.c ****     while(currPixel < strip->pixelCount)
  61:Core/Src/NOS_WS2812B_Strip.c ****     {
  62:Core/Src/NOS_WS2812B_Strip.c ****         NOS_WS2812B_Strip_SetPixelByPixelColor(strip,currPixel,NOS_GetBaseColor(currColor));
  63:Core/Src/NOS_WS2812B_Strip.c ****         
ARM GAS  C:\Users\igorn\AppData\Local\Temp\cco5MKdE.s 			page 9


  64:Core/Src/NOS_WS2812B_Strip.c ****         currColor++;
  65:Core/Src/NOS_WS2812B_Strip.c ****         if(currColor > 11)
  66:Core/Src/NOS_WS2812B_Strip.c ****         {
  67:Core/Src/NOS_WS2812B_Strip.c ****             currColor = 0;
  68:Core/Src/NOS_WS2812B_Strip.c ****         }
  69:Core/Src/NOS_WS2812B_Strip.c **** 
  70:Core/Src/NOS_WS2812B_Strip.c ****         currPixel++;
  71:Core/Src/NOS_WS2812B_Strip.c ****     }
  72:Core/Src/NOS_WS2812B_Strip.c **** }
  73:Core/Src/NOS_WS2812B_Strip.c **** 
  74:Core/Src/NOS_WS2812B_Strip.c **** void NOS_WS2812B_Strip_ColorFill(WS2812B_Strip* strip,PixelColor color)
  75:Core/Src/NOS_WS2812B_Strip.c **** {
 397              		.loc 1 75 1 is_stmt 1 view -0
 398              		.cfi_startproc
 399              		@ args = 0, pretend = 0, frame = 8
 400              		@ frame_needed = 0, uses_anonymous_args = 0
 401              		.loc 1 75 1 is_stmt 0 view .LVU100
 402 0000 30B5     		push	{r4, r5, lr}
 403              		.cfi_def_cfa_offset 12
 404              		.cfi_offset 4, -12
 405              		.cfi_offset 5, -8
 406              		.cfi_offset 14, -4
 407 0002 85B0     		sub	sp, sp, #20
 408              		.cfi_def_cfa_offset 32
 409 0004 0546     		mov	r5, r0
 410 0006 0391     		str	r1, [sp, #12]
  76:Core/Src/NOS_WS2812B_Strip.c ****     for(int i = 0; i < strip->pixelCount; i++)
 411              		.loc 1 76 5 is_stmt 1 view .LVU101
 412              	.LBB5:
 413              		.loc 1 76 9 view .LVU102
 414              	.LVL44:
 415              		.loc 1 76 13 is_stmt 0 view .LVU103
 416 0008 0024     		movs	r4, #0
 417              		.loc 1 76 5 view .LVU104
 418 000a 0BE0     		b	.L19
 419              	.LVL45:
 420              	.L20:
  77:Core/Src/NOS_WS2812B_Strip.c ****     {
  78:Core/Src/NOS_WS2812B_Strip.c ****         NOS_WS2812B_Strip_SetPixel(strip,i,color.R,color.G,color.B);
 421              		.loc 1 78 9 is_stmt 1 discriminator 3 view .LVU105
 422 000c 9DF80E30 		ldrb	r3, [sp, #14]	@ zero_extendqisi2
 423 0010 0093     		str	r3, [sp]
 424 0012 9DF80D30 		ldrb	r3, [sp, #13]	@ zero_extendqisi2
 425 0016 9DF80C20 		ldrb	r2, [sp, #12]	@ zero_extendqisi2
 426 001a 2146     		mov	r1, r4
 427 001c 2846     		mov	r0, r5
 428 001e FFF7FEFF 		bl	NOS_WS2812B_Strip_SetPixel
 429              	.LVL46:
  76:Core/Src/NOS_WS2812B_Strip.c ****     for(int i = 0; i < strip->pixelCount; i++)
 430              		.loc 1 76 44 discriminator 3 view .LVU106
 431 0022 0134     		adds	r4, r4, #1
 432              	.LVL47:
 433              	.L19:
  76:Core/Src/NOS_WS2812B_Strip.c ****     for(int i = 0; i < strip->pixelCount; i++)
 434              		.loc 1 76 22 discriminator 1 view .LVU107
  76:Core/Src/NOS_WS2812B_Strip.c ****     for(int i = 0; i < strip->pixelCount; i++)
 435              		.loc 1 76 29 is_stmt 0 discriminator 1 view .LVU108
ARM GAS  C:\Users\igorn\AppData\Local\Temp\cco5MKdE.s 			page 10


 436 0024 AB68     		ldr	r3, [r5, #8]
  76:Core/Src/NOS_WS2812B_Strip.c ****     for(int i = 0; i < strip->pixelCount; i++)
 437              		.loc 1 76 22 discriminator 1 view .LVU109
 438 0026 A342     		cmp	r3, r4
 439 0028 F0DC     		bgt	.L20
 440              	.LBE5:
  79:Core/Src/NOS_WS2812B_Strip.c ****     }
  80:Core/Src/NOS_WS2812B_Strip.c **** }
 441              		.loc 1 80 1 view .LVU110
 442 002a 05B0     		add	sp, sp, #20
 443              		.cfi_def_cfa_offset 12
 444              		@ sp needed
 445 002c 30BD     		pop	{r4, r5, pc}
 446              		.loc 1 80 1 view .LVU111
 447              		.cfi_endproc
 448              	.LFE71:
 450              		.section	.text.NOS_WS2812B_Strip_SetPixelByRGB,"ax",%progbits
 451              		.align	1
 452              		.global	NOS_WS2812B_Strip_SetPixelByRGB
 453              		.syntax unified
 454              		.thumb
 455              		.thumb_func
 457              	NOS_WS2812B_Strip_SetPixelByRGB:
 458              	.LVL48:
 459              	.LFB72:
  81:Core/Src/NOS_WS2812B_Strip.c **** 
  82:Core/Src/NOS_WS2812B_Strip.c **** void NOS_WS2812B_Strip_SetPixelByRGB(WS2812B_Strip* strip,int pixelPos,uint32_t rgb)
  83:Core/Src/NOS_WS2812B_Strip.c **** {
 460              		.loc 1 83 1 is_stmt 1 view -0
 461              		.cfi_startproc
 462              		@ args = 0, pretend = 0, frame = 0
 463              		@ frame_needed = 0, uses_anonymous_args = 0
 464              		.loc 1 83 1 is_stmt 0 view .LVU113
 465 0000 00B5     		push	{lr}
 466              		.cfi_def_cfa_offset 4
 467              		.cfi_offset 14, -4
 468 0002 83B0     		sub	sp, sp, #12
 469              		.cfi_def_cfa_offset 16
  84:Core/Src/NOS_WS2812B_Strip.c ****     uint8_t R = (rgb & 0x00FF0000) >> 16;
 470              		.loc 1 84 5 is_stmt 1 view .LVU114
 471              	.LVL49:
  85:Core/Src/NOS_WS2812B_Strip.c ****     uint8_t G = (rgb & 0x0000FF00) >> 8;
 472              		.loc 1 85 5 view .LVU115
  86:Core/Src/NOS_WS2812B_Strip.c ****     uint8_t B = rgb & 0x000000FF;
 473              		.loc 1 86 5 view .LVU116
 474              		.loc 1 86 13 is_stmt 0 view .LVU117
 475 0004 D3B2     		uxtb	r3, r2
 476              	.LVL50:
  87:Core/Src/NOS_WS2812B_Strip.c **** 
  88:Core/Src/NOS_WS2812B_Strip.c ****     NOS_WS2812B_Strip_SetPixel(strip,pixelPos,R,G,B);
 477              		.loc 1 88 5 is_stmt 1 view .LVU118
 478 0006 0093     		str	r3, [sp]
 479 0008 C2F30723 		ubfx	r3, r2, #8, #8
 480              	.LVL51:
 481              		.loc 1 88 5 is_stmt 0 view .LVU119
 482 000c C2F30742 		ubfx	r2, r2, #16, #8
 483              	.LVL52:
ARM GAS  C:\Users\igorn\AppData\Local\Temp\cco5MKdE.s 			page 11


 484              		.loc 1 88 5 view .LVU120
 485 0010 FFF7FEFF 		bl	NOS_WS2812B_Strip_SetPixel
 486              	.LVL53:
  89:Core/Src/NOS_WS2812B_Strip.c **** }
 487              		.loc 1 89 1 view .LVU121
 488 0014 03B0     		add	sp, sp, #12
 489              		.cfi_def_cfa_offset 4
 490              		@ sp needed
 491 0016 5DF804FB 		ldr	pc, [sp], #4
 492              		.cfi_endproc
 493              	.LFE72:
 495              		.section	.text.NOS_WS2812B_Strip_SetPixelByPixelColor,"ax",%progbits
 496              		.align	1
 497              		.global	NOS_WS2812B_Strip_SetPixelByPixelColor
 498              		.syntax unified
 499              		.thumb
 500              		.thumb_func
 502              	NOS_WS2812B_Strip_SetPixelByPixelColor:
 503              	.LVL54:
 504              	.LFB73:
  90:Core/Src/NOS_WS2812B_Strip.c **** 
  91:Core/Src/NOS_WS2812B_Strip.c **** void NOS_WS2812B_Strip_SetPixelByPixelColor(WS2812B_Strip* strip,int pixelPos, PixelColor color)
  92:Core/Src/NOS_WS2812B_Strip.c **** {
 505              		.loc 1 92 1 is_stmt 1 view -0
 506              		.cfi_startproc
 507              		@ args = 0, pretend = 0, frame = 8
 508              		@ frame_needed = 0, uses_anonymous_args = 0
 509              		.loc 1 92 1 is_stmt 0 view .LVU123
 510 0000 00B5     		push	{lr}
 511              		.cfi_def_cfa_offset 4
 512              		.cfi_offset 14, -4
 513 0002 85B0     		sub	sp, sp, #20
 514              		.cfi_def_cfa_offset 24
 515 0004 0392     		str	r2, [sp, #12]
  93:Core/Src/NOS_WS2812B_Strip.c ****     NOS_WS2812B_Strip_SetPixel(strip,pixelPos,color.R,color.G,color.B);
 516              		.loc 1 93 5 is_stmt 1 view .LVU124
 517 0006 9DF80E30 		ldrb	r3, [sp, #14]	@ zero_extendqisi2
 518 000a 0093     		str	r3, [sp]
 519 000c 9DF80D30 		ldrb	r3, [sp, #13]	@ zero_extendqisi2
 520 0010 9DF80C20 		ldrb	r2, [sp, #12]	@ zero_extendqisi2
 521 0014 FFF7FEFF 		bl	NOS_WS2812B_Strip_SetPixel
 522              	.LVL55:
  94:Core/Src/NOS_WS2812B_Strip.c **** }
 523              		.loc 1 94 1 is_stmt 0 view .LVU125
 524 0018 05B0     		add	sp, sp, #20
 525              		.cfi_def_cfa_offset 4
 526              		@ sp needed
 527 001a 5DF804FB 		ldr	pc, [sp], #4
 528              		.cfi_endproc
 529              	.LFE73:
 531              		.section	.text.NOS_WS2812B_Strip_TestFill,"ax",%progbits
 532              		.align	1
 533              		.global	NOS_WS2812B_Strip_TestFill
 534              		.syntax unified
 535              		.thumb
 536              		.thumb_func
 538              	NOS_WS2812B_Strip_TestFill:
ARM GAS  C:\Users\igorn\AppData\Local\Temp\cco5MKdE.s 			page 12


 539              	.LVL56:
 540              	.LFB70:
  56:Core/Src/NOS_WS2812B_Strip.c ****     int currPixel = 0;
 541              		.loc 1 56 1 is_stmt 1 view -0
 542              		.cfi_startproc
 543              		@ args = 0, pretend = 0, frame = 8
 544              		@ frame_needed = 0, uses_anonymous_args = 0
  56:Core/Src/NOS_WS2812B_Strip.c ****     int currPixel = 0;
 545              		.loc 1 56 1 is_stmt 0 view .LVU127
 546 0000 70B5     		push	{r4, r5, r6, lr}
 547              		.cfi_def_cfa_offset 16
 548              		.cfi_offset 4, -16
 549              		.cfi_offset 5, -12
 550              		.cfi_offset 6, -8
 551              		.cfi_offset 14, -4
 552 0002 82B0     		sub	sp, sp, #8
 553              		.cfi_def_cfa_offset 24
 554 0004 0646     		mov	r6, r0
  57:Core/Src/NOS_WS2812B_Strip.c ****     int currColor = 0;
 555              		.loc 1 57 5 is_stmt 1 view .LVU128
 556              	.LVL57:
  58:Core/Src/NOS_WS2812B_Strip.c ****     
 557              		.loc 1 58 5 view .LVU129
  60:Core/Src/NOS_WS2812B_Strip.c ****     {
 558              		.loc 1 60 5 view .LVU130
  58:Core/Src/NOS_WS2812B_Strip.c ****     
 559              		.loc 1 58 9 is_stmt 0 view .LVU131
 560 0006 0024     		movs	r4, #0
  57:Core/Src/NOS_WS2812B_Strip.c ****     int currColor = 0;
 561              		.loc 1 57 9 view .LVU132
 562 0008 2546     		mov	r5, r4
  60:Core/Src/NOS_WS2812B_Strip.c ****     {
 563              		.loc 1 60 10 view .LVU133
 564 000a 00E0     		b	.L27
 565              	.LVL58:
 566              	.L28:
  70:Core/Src/NOS_WS2812B_Strip.c ****     }
 567              		.loc 1 70 9 is_stmt 1 view .LVU134
  70:Core/Src/NOS_WS2812B_Strip.c ****     }
 568              		.loc 1 70 18 is_stmt 0 view .LVU135
 569 000c 0135     		adds	r5, r5, #1
 570              	.LVL59:
 571              	.L27:
  60:Core/Src/NOS_WS2812B_Strip.c ****     {
 572              		.loc 1 60 21 is_stmt 1 view .LVU136
  60:Core/Src/NOS_WS2812B_Strip.c ****     {
 573              		.loc 1 60 28 is_stmt 0 view .LVU137
 574 000e B368     		ldr	r3, [r6, #8]
  60:Core/Src/NOS_WS2812B_Strip.c ****     {
 575              		.loc 1 60 21 view .LVU138
 576 0010 AB42     		cmp	r3, r5
 577 0012 16DD     		ble	.L32
  62:Core/Src/NOS_WS2812B_Strip.c ****         
 578              		.loc 1 62 9 is_stmt 1 view .LVU139
 579 0014 E0B2     		uxtb	r0, r4
 580 0016 FFF7FEFF 		bl	NOS_GetBaseColor
 581              	.LVL60:
ARM GAS  C:\Users\igorn\AppData\Local\Temp\cco5MKdE.s 			page 13


 582 001a 8DF80400 		strb	r0, [sp, #4]
 583 001e C0F30723 		ubfx	r3, r0, #8, #8
 584 0022 8DF80530 		strb	r3, [sp, #5]
 585 0026 C0F30740 		ubfx	r0, r0, #16, #8
 586 002a 8DF80600 		strb	r0, [sp, #6]
 587 002e 019A     		ldr	r2, [sp, #4]
 588 0030 2946     		mov	r1, r5
 589 0032 3046     		mov	r0, r6
 590 0034 FFF7FEFF 		bl	NOS_WS2812B_Strip_SetPixelByPixelColor
 591              	.LVL61:
  64:Core/Src/NOS_WS2812B_Strip.c ****         if(currColor > 11)
 592              		.loc 1 64 9 view .LVU140
  64:Core/Src/NOS_WS2812B_Strip.c ****         if(currColor > 11)
 593              		.loc 1 64 18 is_stmt 0 view .LVU141
 594 0038 0134     		adds	r4, r4, #1
 595              	.LVL62:
  65:Core/Src/NOS_WS2812B_Strip.c ****         {
 596              		.loc 1 65 9 is_stmt 1 view .LVU142
  65:Core/Src/NOS_WS2812B_Strip.c ****         {
 597              		.loc 1 65 11 is_stmt 0 view .LVU143
 598 003a 0B2C     		cmp	r4, #11
 599 003c E6DD     		ble	.L28
  67:Core/Src/NOS_WS2812B_Strip.c ****         }
 600              		.loc 1 67 23 view .LVU144
 601 003e 0024     		movs	r4, #0
 602              	.LVL63:
  67:Core/Src/NOS_WS2812B_Strip.c ****         }
 603              		.loc 1 67 23 view .LVU145
 604 0040 E4E7     		b	.L28
 605              	.LVL64:
 606              	.L32:
  72:Core/Src/NOS_WS2812B_Strip.c **** 
 607              		.loc 1 72 1 view .LVU146
 608 0042 02B0     		add	sp, sp, #8
 609              		.cfi_def_cfa_offset 16
 610              		@ sp needed
 611 0044 70BD     		pop	{r4, r5, r6, pc}
  72:Core/Src/NOS_WS2812B_Strip.c **** 
 612              		.loc 1 72 1 view .LVU147
 613              		.cfi_endproc
 614              	.LFE70:
 616              		.section	.text.NOS_WS2812B_Strip_SetBright,"ax",%progbits
 617              		.align	1
 618              		.global	NOS_WS2812B_Strip_SetBright
 619              		.syntax unified
 620              		.thumb
 621              		.thumb_func
 623              	NOS_WS2812B_Strip_SetBright:
 624              	.LVL65:
 625              	.LFB74:
  95:Core/Src/NOS_WS2812B_Strip.c **** 
  96:Core/Src/NOS_WS2812B_Strip.c **** void NOS_WS2812B_Strip_SetBright(WS2812B_Strip* strip,uint8_t bright)
  97:Core/Src/NOS_WS2812B_Strip.c **** {
 626              		.loc 1 97 1 is_stmt 1 view -0
 627              		.cfi_startproc
 628              		@ args = 0, pretend = 0, frame = 0
 629              		@ frame_needed = 0, uses_anonymous_args = 0
ARM GAS  C:\Users\igorn\AppData\Local\Temp\cco5MKdE.s 			page 14


 630              		@ link register save eliminated.
  98:Core/Src/NOS_WS2812B_Strip.c ****     strip->bright = bright;
 631              		.loc 1 98 5 view .LVU149
 632              		.loc 1 98 19 is_stmt 0 view .LVU150
 633 0000 C160     		str	r1, [r0, #12]
  99:Core/Src/NOS_WS2812B_Strip.c **** }
 634              		.loc 1 99 1 view .LVU151
 635 0002 7047     		bx	lr
 636              		.cfi_endproc
 637              	.LFE74:
 639              		.section	.text.NOS_WS2812B_Strip_Effect_Breathe_Init,"ax",%progbits
 640              		.align	1
 641              		.global	NOS_WS2812B_Strip_Effect_Breathe_Init
 642              		.syntax unified
 643              		.thumb
 644              		.thumb_func
 646              	NOS_WS2812B_Strip_Effect_Breathe_Init:
 647              	.LVL66:
 648              	.LFB75:
 100:Core/Src/NOS_WS2812B_Strip.c **** 
 101:Core/Src/NOS_WS2812B_Strip.c **** void NOS_WS2812B_Strip_Effect_Breathe_Init(Effect_Struct* effect,uint16_t speed,uint16_t step,uint1
 102:Core/Src/NOS_WS2812B_Strip.c **** {
 649              		.loc 1 102 1 is_stmt 1 view -0
 650              		.cfi_startproc
 651              		@ args = 4, pretend = 0, frame = 0
 652              		@ frame_needed = 0, uses_anonymous_args = 0
 653              		.loc 1 102 1 is_stmt 0 view .LVU153
 654 0000 2DE9F041 		push	{r4, r5, r6, r7, r8, lr}
 655              		.cfi_def_cfa_offset 24
 656              		.cfi_offset 4, -24
 657              		.cfi_offset 5, -20
 658              		.cfi_offset 6, -16
 659              		.cfi_offset 7, -12
 660              		.cfi_offset 8, -8
 661              		.cfi_offset 14, -4
 662 0004 0446     		mov	r4, r0
 663 0006 0F46     		mov	r7, r1
 664 0008 1546     		mov	r5, r2
 665 000a 1E46     		mov	r6, r3
 666 000c BDF81880 		ldrh	r8, [sp, #24]
 103:Core/Src/NOS_WS2812B_Strip.c ****         NOS_Math_SinValue_Init(&effect->value,minValue,maxValue,step);
 667              		.loc 1 103 9 is_stmt 1 view .LVU154
 668 0010 1346     		mov	r3, r2
 669              	.LVL67:
 670              		.loc 1 103 9 is_stmt 0 view .LVU155
 671 0012 4246     		mov	r2, r8
 672              	.LVL68:
 673              		.loc 1 103 9 view .LVU156
 674 0014 3146     		mov	r1, r6
 675              	.LVL69:
 676              		.loc 1 103 9 view .LVU157
 677 0016 FFF7FEFF 		bl	NOS_Math_SinValue_Init
 678              	.LVL70:
 104:Core/Src/NOS_WS2812B_Strip.c ****         effect->minValue = minValue;
 679              		.loc 1 104 9 is_stmt 1 view .LVU158
 680              		.loc 1 104 26 is_stmt 0 view .LVU159
 681 001a 6683     		strh	r6, [r4, #26]	@ movhi
ARM GAS  C:\Users\igorn\AppData\Local\Temp\cco5MKdE.s 			page 15


 105:Core/Src/NOS_WS2812B_Strip.c ****         effect->maxValue = maxValue;
 682              		.loc 1 105 9 is_stmt 1 view .LVU160
 683              		.loc 1 105 26 is_stmt 0 view .LVU161
 684 001c A4F81C80 		strh	r8, [r4, #28]	@ movhi
 106:Core/Src/NOS_WS2812B_Strip.c ****         effect->speed.data = speed;
 685              		.loc 1 106 9 is_stmt 1 view .LVU162
 686              		.loc 1 106 28 is_stmt 0 view .LVU163
 687 0020 A782     		strh	r7, [r4, #20]	@ movhi
 107:Core/Src/NOS_WS2812B_Strip.c ****         effect->step.data = step;
 688              		.loc 1 107 9 is_stmt 1 view .LVU164
 689              		.loc 1 107 27 is_stmt 0 view .LVU165
 690 0022 E582     		strh	r5, [r4, #22]	@ movhi
 108:Core/Src/NOS_WS2812B_Strip.c ****         effect->enabled = true;
 691              		.loc 1 108 9 is_stmt 1 view .LVU166
 692              		.loc 1 108 25 is_stmt 0 view .LVU167
 693 0024 0123     		movs	r3, #1
 694 0026 A377     		strb	r3, [r4, #30]
 109:Core/Src/NOS_WS2812B_Strip.c ****         effect->effectId = 0x20;   
 695              		.loc 1 109 9 is_stmt 1 view .LVU168
 696              		.loc 1 109 26 is_stmt 0 view .LVU169
 697 0028 2023     		movs	r3, #32
 698 002a E377     		strb	r3, [r4, #31]
 110:Core/Src/NOS_WS2812B_Strip.c **** }
 699              		.loc 1 110 1 view .LVU170
 700 002c BDE8F081 		pop	{r4, r5, r6, r7, r8, pc}
 701              		.loc 1 110 1 view .LVU171
 702              		.cfi_endproc
 703              	.LFE75:
 705              		.section	.text.NOS_WS2812B_Strip_Effect_Breathe_Copy,"ax",%progbits
 706              		.align	1
 707              		.global	NOS_WS2812B_Strip_Effect_Breathe_Copy
 708              		.syntax unified
 709              		.thumb
 710              		.thumb_func
 712              	NOS_WS2812B_Strip_Effect_Breathe_Copy:
 713              	.LVL71:
 714              	.LFB76:
 111:Core/Src/NOS_WS2812B_Strip.c **** 
 112:Core/Src/NOS_WS2812B_Strip.c **** void NOS_WS2812B_Strip_Effect_Breathe_Copy(Effect_Struct* destination,Effect_Struct* source)
 113:Core/Src/NOS_WS2812B_Strip.c **** {
 715              		.loc 1 113 1 is_stmt 1 view -0
 716              		.cfi_startproc
 717              		@ args = 0, pretend = 0, frame = 0
 718              		@ frame_needed = 0, uses_anonymous_args = 0
 719              		.loc 1 113 1 is_stmt 0 view .LVU173
 720 0000 38B5     		push	{r3, r4, r5, lr}
 721              		.cfi_def_cfa_offset 16
 722              		.cfi_offset 3, -16
 723              		.cfi_offset 4, -12
 724              		.cfi_offset 5, -8
 725              		.cfi_offset 14, -4
 726 0002 0546     		mov	r5, r0
 727 0004 0C46     		mov	r4, r1
 114:Core/Src/NOS_WS2812B_Strip.c ****     NOS_Math_SinValue_Init(&destination->value,source->minValue,source->maxValue,source->step.data)
 728              		.loc 1 114 5 is_stmt 1 view .LVU174
 729 0006 CB8A     		ldrh	r3, [r1, #22]
 730 0008 8A8B     		ldrh	r2, [r1, #28]
ARM GAS  C:\Users\igorn\AppData\Local\Temp\cco5MKdE.s 			page 16


 731 000a 498B     		ldrh	r1, [r1, #26]
 732              	.LVL72:
 733              		.loc 1 114 5 is_stmt 0 view .LVU175
 734 000c FFF7FEFF 		bl	NOS_Math_SinValue_Init
 735              	.LVL73:
 115:Core/Src/NOS_WS2812B_Strip.c ****     destination->minValue = source->minValue;
 736              		.loc 1 115 5 is_stmt 1 view .LVU176
 737              		.loc 1 115 35 is_stmt 0 view .LVU177
 738 0010 638B     		ldrh	r3, [r4, #26]
 739              		.loc 1 115 27 view .LVU178
 740 0012 6B83     		strh	r3, [r5, #26]	@ movhi
 116:Core/Src/NOS_WS2812B_Strip.c ****     destination->maxValue = source->maxValue;
 741              		.loc 1 116 5 is_stmt 1 view .LVU179
 742              		.loc 1 116 35 is_stmt 0 view .LVU180
 743 0014 A38B     		ldrh	r3, [r4, #28]
 744              		.loc 1 116 27 view .LVU181
 745 0016 AB83     		strh	r3, [r5, #28]	@ movhi
 117:Core/Src/NOS_WS2812B_Strip.c ****     destination->speed.data = source->speed.data;
 746              		.loc 1 117 5 is_stmt 1 view .LVU182
 747              		.loc 1 117 44 is_stmt 0 view .LVU183
 748 0018 A38A     		ldrh	r3, [r4, #20]
 749              		.loc 1 117 29 view .LVU184
 750 001a AB82     		strh	r3, [r5, #20]	@ movhi
 118:Core/Src/NOS_WS2812B_Strip.c ****     destination->step.data = source->step.data;
 751              		.loc 1 118 5 is_stmt 1 view .LVU185
 752              		.loc 1 118 42 is_stmt 0 view .LVU186
 753 001c E38A     		ldrh	r3, [r4, #22]
 754              		.loc 1 118 28 view .LVU187
 755 001e EB82     		strh	r3, [r5, #22]	@ movhi
 119:Core/Src/NOS_WS2812B_Strip.c ****     destination->enabled = true;
 756              		.loc 1 119 5 is_stmt 1 view .LVU188
 757              		.loc 1 119 26 is_stmt 0 view .LVU189
 758 0020 0123     		movs	r3, #1
 759 0022 AB77     		strb	r3, [r5, #30]
 120:Core/Src/NOS_WS2812B_Strip.c ****     destination->effectId = 0x20;   
 760              		.loc 1 120 5 is_stmt 1 view .LVU190
 761              		.loc 1 120 27 is_stmt 0 view .LVU191
 762 0024 2023     		movs	r3, #32
 763 0026 EB77     		strb	r3, [r5, #31]
 121:Core/Src/NOS_WS2812B_Strip.c **** }
 764              		.loc 1 121 1 view .LVU192
 765 0028 38BD     		pop	{r3, r4, r5, pc}
 766              		.loc 1 121 1 view .LVU193
 767              		.cfi_endproc
 768              	.LFE76:
 770              		.section	.text.NOS_WS2812B_Strip_Effect_Breathe_Handler,"ax",%progbits
 771              		.align	1
 772              		.global	NOS_WS2812B_Strip_Effect_Breathe_Handler
 773              		.syntax unified
 774              		.thumb
 775              		.thumb_func
 777              	NOS_WS2812B_Strip_Effect_Breathe_Handler:
 778              	.LVL74:
 779              	.LFB79:
 122:Core/Src/NOS_WS2812B_Strip.c **** 
 123:Core/Src/NOS_WS2812B_Strip.c **** void NOS_WS2812B_Strip_Effects_AddEffect(WS2812B_Strip* strip,Effect_Struct effect)
 124:Core/Src/NOS_WS2812B_Strip.c **** {
ARM GAS  C:\Users\igorn\AppData\Local\Temp\cco5MKdE.s 			page 17


 125:Core/Src/NOS_WS2812B_Strip.c ****     if(strip->effectsCounter < 10)
 126:Core/Src/NOS_WS2812B_Strip.c ****     {
 127:Core/Src/NOS_WS2812B_Strip.c ****         switch(effect.effectId)
 128:Core/Src/NOS_WS2812B_Strip.c ****         {
 129:Core/Src/NOS_WS2812B_Strip.c ****             case 0x20:
 130:Core/Src/NOS_WS2812B_Strip.c ****                 NOS_WS2812B_Strip_Effect_Breathe_Init(&strip->effects[strip->effectsCounter],effect
 131:Core/Src/NOS_WS2812B_Strip.c ****                 break;
 132:Core/Src/NOS_WS2812B_Strip.c ****             case 0x21:
 133:Core/Src/NOS_WS2812B_Strip.c ****                 NOS_WS2812B_Strip_Effect_Rainbow_Init(&strip->effects[strip->effectsCounter],effect
 134:Core/Src/NOS_WS2812B_Strip.c ****                 break;
 135:Core/Src/NOS_WS2812B_Strip.c ****         }
 136:Core/Src/NOS_WS2812B_Strip.c **** 
 137:Core/Src/NOS_WS2812B_Strip.c ****         strip->effectsCounter++;
 138:Core/Src/NOS_WS2812B_Strip.c ****     }
 139:Core/Src/NOS_WS2812B_Strip.c **** }
 140:Core/Src/NOS_WS2812B_Strip.c **** 
 141:Core/Src/NOS_WS2812B_Strip.c **** void NOS_WS2812B_Strip_Effects_Handler(WS2812B_Strip* strip)
 142:Core/Src/NOS_WS2812B_Strip.c **** {
 143:Core/Src/NOS_WS2812B_Strip.c ****     for(int i = 0; i < strip->effectsCounter; i++)
 144:Core/Src/NOS_WS2812B_Strip.c ****     {
 145:Core/Src/NOS_WS2812B_Strip.c ****         switch(strip->effects[i].effectId)
 146:Core/Src/NOS_WS2812B_Strip.c ****         {
 147:Core/Src/NOS_WS2812B_Strip.c ****             case 0x20:
 148:Core/Src/NOS_WS2812B_Strip.c ****                 NOS_WS2812B_Strip_Effect_Breathe_Handler(strip,&strip->effects[i]);
 149:Core/Src/NOS_WS2812B_Strip.c ****                 break;
 150:Core/Src/NOS_WS2812B_Strip.c ****             case 0x21:
 151:Core/Src/NOS_WS2812B_Strip.c ****                 NOS_WS2812B_Strip_Effect_Rainbow_Handler(strip,&strip->effects[i]);
 152:Core/Src/NOS_WS2812B_Strip.c ****                 break;
 153:Core/Src/NOS_WS2812B_Strip.c ****         }
 154:Core/Src/NOS_WS2812B_Strip.c ****     }
 155:Core/Src/NOS_WS2812B_Strip.c **** }
 156:Core/Src/NOS_WS2812B_Strip.c **** 
 157:Core/Src/NOS_WS2812B_Strip.c **** void NOS_WS2812B_Strip_Effect_Breathe_Handler(WS2812B_Strip* strip,Effect_Struct* effect)
 158:Core/Src/NOS_WS2812B_Strip.c **** {
 780              		.loc 1 158 1 is_stmt 1 view -0
 781              		.cfi_startproc
 782              		@ args = 0, pretend = 0, frame = 0
 783              		@ frame_needed = 0, uses_anonymous_args = 0
 159:Core/Src/NOS_WS2812B_Strip.c ****     if(strip != NULL)
 784              		.loc 1 159 5 view .LVU195
 785              		.loc 1 159 7 is_stmt 0 view .LVU196
 786 0000 D0B1     		cbz	r0, .L42
 158:Core/Src/NOS_WS2812B_Strip.c ****     if(strip != NULL)
 787              		.loc 1 158 1 view .LVU197
 788 0002 38B5     		push	{r3, r4, r5, lr}
 789              		.cfi_def_cfa_offset 16
 790              		.cfi_offset 3, -16
 791              		.cfi_offset 4, -12
 792              		.cfi_offset 5, -8
 793              		.cfi_offset 14, -4
 794 0004 0C46     		mov	r4, r1
 795 0006 0546     		mov	r5, r0
 160:Core/Src/NOS_WS2812B_Strip.c ****     {
 161:Core/Src/NOS_WS2812B_Strip.c ****         if(effect != NULL)
 796              		.loc 1 161 9 is_stmt 1 view .LVU198
 797              		.loc 1 161 11 is_stmt 0 view .LVU199
 798 0008 41B1     		cbz	r1, .L38
ARM GAS  C:\Users\igorn\AppData\Local\Temp\cco5MKdE.s 			page 18


 162:Core/Src/NOS_WS2812B_Strip.c ****         {
 163:Core/Src/NOS_WS2812B_Strip.c ****             if(effect->enabled)
 799              		.loc 1 163 13 is_stmt 1 view .LVU200
 800              		.loc 1 163 22 is_stmt 0 view .LVU201
 801 000a 8B7F     		ldrb	r3, [r1, #30]	@ zero_extendqisi2
 802              		.loc 1 163 15 view .LVU202
 803 000c 33B1     		cbz	r3, .L38
 164:Core/Src/NOS_WS2812B_Strip.c ****             {
 165:Core/Src/NOS_WS2812B_Strip.c ****                 if(effect->timer > effect->speed.data)
 804              		.loc 1 165 17 is_stmt 1 view .LVU203
 805              		.loc 1 165 26 is_stmt 0 view .LVU204
 806 000e 0A8B     		ldrh	r2, [r1, #24]
 807              		.loc 1 165 49 view .LVU205
 808 0010 8B8A     		ldrh	r3, [r1, #20]
 809              		.loc 1 165 19 view .LVU206
 810 0012 9A42     		cmp	r2, r3
 811 0014 03D8     		bhi	.L45
 812              	.LVL75:
 813              	.L40:
 166:Core/Src/NOS_WS2812B_Strip.c ****                 {
 167:Core/Src/NOS_WS2812B_Strip.c ****                     NOS_Math_SinValue_Handler(&effect->value);
 168:Core/Src/NOS_WS2812B_Strip.c ****                     NOS_WS2812B_Strip_SetBright(strip,effect->value.value);
 169:Core/Src/NOS_WS2812B_Strip.c ****                     NOS_WS2812B_Strip_Update(strip);
 170:Core/Src/NOS_WS2812B_Strip.c ****                     effect->timer = 0;
 171:Core/Src/NOS_WS2812B_Strip.c ****                 }
 172:Core/Src/NOS_WS2812B_Strip.c ****                 effect->timer++;
 814              		.loc 1 172 17 is_stmt 1 view .LVU207
 815              		.loc 1 172 23 is_stmt 0 view .LVU208
 816 0016 238B     		ldrh	r3, [r4, #24]
 817              		.loc 1 172 30 view .LVU209
 818 0018 0133     		adds	r3, r3, #1
 819 001a 2383     		strh	r3, [r4, #24]	@ movhi
 820              	.L38:
 173:Core/Src/NOS_WS2812B_Strip.c ****             }
 174:Core/Src/NOS_WS2812B_Strip.c ****         }
 175:Core/Src/NOS_WS2812B_Strip.c ****     }
 176:Core/Src/NOS_WS2812B_Strip.c **** }
 821              		.loc 1 176 1 view .LVU210
 822 001c 38BD     		pop	{r3, r4, r5, pc}
 823              	.LVL76:
 824              	.L45:
 167:Core/Src/NOS_WS2812B_Strip.c ****                     NOS_WS2812B_Strip_SetBright(strip,effect->value.value);
 825              		.loc 1 167 21 is_stmt 1 view .LVU211
 826 001e 0846     		mov	r0, r1
 827              	.LVL77:
 167:Core/Src/NOS_WS2812B_Strip.c ****                     NOS_WS2812B_Strip_SetBright(strip,effect->value.value);
 828              		.loc 1 167 21 is_stmt 0 view .LVU212
 829 0020 FFF7FEFF 		bl	NOS_Math_SinValue_Handler
 830              	.LVL78:
 168:Core/Src/NOS_WS2812B_Strip.c ****                     NOS_WS2812B_Strip_Update(strip);
 831              		.loc 1 168 21 is_stmt 1 view .LVU213
 832 0024 2178     		ldrb	r1, [r4]	@ zero_extendqisi2
 833 0026 2846     		mov	r0, r5
 834 0028 FFF7FEFF 		bl	NOS_WS2812B_Strip_SetBright
 835              	.LVL79:
 169:Core/Src/NOS_WS2812B_Strip.c ****                     effect->timer = 0;
 836              		.loc 1 169 21 view .LVU214
ARM GAS  C:\Users\igorn\AppData\Local\Temp\cco5MKdE.s 			page 19


 837 002c 2846     		mov	r0, r5
 838 002e FFF7FEFF 		bl	NOS_WS2812B_Strip_Update
 839              	.LVL80:
 170:Core/Src/NOS_WS2812B_Strip.c ****                 }
 840              		.loc 1 170 21 view .LVU215
 170:Core/Src/NOS_WS2812B_Strip.c ****                 }
 841              		.loc 1 170 35 is_stmt 0 view .LVU216
 842 0032 0023     		movs	r3, #0
 843 0034 2383     		strh	r3, [r4, #24]	@ movhi
 844 0036 EEE7     		b	.L40
 845              	.LVL81:
 846              	.L42:
 847              		.cfi_def_cfa_offset 0
 848              		.cfi_restore 3
 849              		.cfi_restore 4
 850              		.cfi_restore 5
 851              		.cfi_restore 14
 170:Core/Src/NOS_WS2812B_Strip.c ****                 }
 852              		.loc 1 170 35 view .LVU217
 853 0038 7047     		bx	lr
 854              		.cfi_endproc
 855              	.LFE79:
 857              		.section	.text.NOS_WS2812B_Strip_Effect_Rainbow_Init,"ax",%progbits
 858              		.align	1
 859              		.global	NOS_WS2812B_Strip_Effect_Rainbow_Init
 860              		.syntax unified
 861              		.thumb
 862              		.thumb_func
 864              	NOS_WS2812B_Strip_Effect_Rainbow_Init:
 865              	.LVL82:
 866              	.LFB81:
 177:Core/Src/NOS_WS2812B_Strip.c **** 
 178:Core/Src/NOS_WS2812B_Strip.c **** void NOS_WS2812B_Strip_Effects_UpdateEffect(WS2812B_Strip* strip,Effect_Struct effect,uint8_t pos)
 179:Core/Src/NOS_WS2812B_Strip.c **** {
 180:Core/Src/NOS_WS2812B_Strip.c ****     if(pos < 10)
 181:Core/Src/NOS_WS2812B_Strip.c ****     {
 182:Core/Src/NOS_WS2812B_Strip.c ****         switch(effect.effectId)
 183:Core/Src/NOS_WS2812B_Strip.c ****         {
 184:Core/Src/NOS_WS2812B_Strip.c ****             case 0x20:
 185:Core/Src/NOS_WS2812B_Strip.c ****                 NOS_WS2812B_Strip_Effect_Breathe_Init(&strip->effects[pos],effect.speed.data,effect
 186:Core/Src/NOS_WS2812B_Strip.c ****                 break;
 187:Core/Src/NOS_WS2812B_Strip.c ****             case 0x21:
 188:Core/Src/NOS_WS2812B_Strip.c ****                 NOS_WS2812B_Strip_Effect_Rainbow_Init(&strip->effects[pos],effect.speed.data,effect
 189:Core/Src/NOS_WS2812B_Strip.c ****                 break;
 190:Core/Src/NOS_WS2812B_Strip.c ****         }
 191:Core/Src/NOS_WS2812B_Strip.c ****     }
 192:Core/Src/NOS_WS2812B_Strip.c **** }
 193:Core/Src/NOS_WS2812B_Strip.c **** 
 194:Core/Src/NOS_WS2812B_Strip.c **** void NOS_WS2812B_Strip_Effect_Rainbow_Init(Effect_Struct* effect,uint16_t speed,uint16_t step,uint1
 195:Core/Src/NOS_WS2812B_Strip.c **** {
 867              		.loc 1 195 1 is_stmt 1 view -0
 868              		.cfi_startproc
 869              		@ args = 4, pretend = 0, frame = 0
 870              		@ frame_needed = 0, uses_anonymous_args = 0
 871              		.loc 1 195 1 is_stmt 0 view .LVU219
 872 0000 2DE9F041 		push	{r4, r5, r6, r7, r8, lr}
 873              		.cfi_def_cfa_offset 24
ARM GAS  C:\Users\igorn\AppData\Local\Temp\cco5MKdE.s 			page 20


 874              		.cfi_offset 4, -24
 875              		.cfi_offset 5, -20
 876              		.cfi_offset 6, -16
 877              		.cfi_offset 7, -12
 878              		.cfi_offset 8, -8
 879              		.cfi_offset 14, -4
 880 0004 0446     		mov	r4, r0
 881 0006 0F46     		mov	r7, r1
 882 0008 1546     		mov	r5, r2
 883 000a 1E46     		mov	r6, r3
 884 000c BDF81880 		ldrh	r8, [sp, #24]
 196:Core/Src/NOS_WS2812B_Strip.c ****         NOS_Math_SinValue_Init(&effect->value,minValue,maxValue,step);
 885              		.loc 1 196 9 is_stmt 1 view .LVU220
 886 0010 1346     		mov	r3, r2
 887              	.LVL83:
 888              		.loc 1 196 9 is_stmt 0 view .LVU221
 889 0012 4246     		mov	r2, r8
 890              	.LVL84:
 891              		.loc 1 196 9 view .LVU222
 892 0014 3146     		mov	r1, r6
 893              	.LVL85:
 894              		.loc 1 196 9 view .LVU223
 895 0016 FFF7FEFF 		bl	NOS_Math_SinValue_Init
 896              	.LVL86:
 197:Core/Src/NOS_WS2812B_Strip.c ****         effect->minValue = minValue;
 897              		.loc 1 197 9 is_stmt 1 view .LVU224
 898              		.loc 1 197 26 is_stmt 0 view .LVU225
 899 001a 6683     		strh	r6, [r4, #26]	@ movhi
 198:Core/Src/NOS_WS2812B_Strip.c ****         effect->maxValue = maxValue;
 900              		.loc 1 198 9 is_stmt 1 view .LVU226
 901              		.loc 1 198 26 is_stmt 0 view .LVU227
 902 001c A4F81C80 		strh	r8, [r4, #28]	@ movhi
 199:Core/Src/NOS_WS2812B_Strip.c ****         effect->speed.data = speed;
 903              		.loc 1 199 9 is_stmt 1 view .LVU228
 904              		.loc 1 199 28 is_stmt 0 view .LVU229
 905 0020 A782     		strh	r7, [r4, #20]	@ movhi
 200:Core/Src/NOS_WS2812B_Strip.c ****         effect->step.data = step;
 906              		.loc 1 200 9 is_stmt 1 view .LVU230
 907              		.loc 1 200 27 is_stmt 0 view .LVU231
 908 0022 E582     		strh	r5, [r4, #22]	@ movhi
 201:Core/Src/NOS_WS2812B_Strip.c ****         effect->enabled = true;
 909              		.loc 1 201 9 is_stmt 1 view .LVU232
 910              		.loc 1 201 25 is_stmt 0 view .LVU233
 911 0024 0123     		movs	r3, #1
 912 0026 A377     		strb	r3, [r4, #30]
 202:Core/Src/NOS_WS2812B_Strip.c ****         effect->effectId = 0x21;  
 913              		.loc 1 202 9 is_stmt 1 view .LVU234
 914              		.loc 1 202 26 is_stmt 0 view .LVU235
 915 0028 2123     		movs	r3, #33
 916 002a E377     		strb	r3, [r4, #31]
 203:Core/Src/NOS_WS2812B_Strip.c **** }
 917              		.loc 1 203 1 view .LVU236
 918 002c BDE8F081 		pop	{r4, r5, r6, r7, r8, pc}
 919              		.loc 1 203 1 view .LVU237
 920              		.cfi_endproc
 921              	.LFE81:
 923              		.section	.text.NOS_WS2812B_Strip_Effects_AddEffect,"ax",%progbits
ARM GAS  C:\Users\igorn\AppData\Local\Temp\cco5MKdE.s 			page 21


 924              		.align	1
 925              		.global	NOS_WS2812B_Strip_Effects_AddEffect
 926              		.syntax unified
 927              		.thumb
 928              		.thumb_func
 930              	NOS_WS2812B_Strip_Effects_AddEffect:
 931              	.LVL87:
 932              	.LFB77:
 124:Core/Src/NOS_WS2812B_Strip.c ****     if(strip->effectsCounter < 10)
 933              		.loc 1 124 1 is_stmt 1 view -0
 934              		.cfi_startproc
 935              		@ args = 36, pretend = 16, frame = 0
 936              		@ frame_needed = 0, uses_anonymous_args = 0
 124:Core/Src/NOS_WS2812B_Strip.c ****     if(strip->effectsCounter < 10)
 937              		.loc 1 124 1 is_stmt 0 view .LVU239
 938 0000 84B0     		sub	sp, sp, #16
 939              		.cfi_def_cfa_offset 16
 940 0002 10B5     		push	{r4, lr}
 941              		.cfi_def_cfa_offset 24
 942              		.cfi_offset 4, -24
 943              		.cfi_offset 14, -20
 944 0004 82B0     		sub	sp, sp, #8
 945              		.cfi_def_cfa_offset 32
 946 0006 0446     		mov	r4, r0
 947 0008 05A8     		add	r0, sp, #20
 948              	.LVL88:
 124:Core/Src/NOS_WS2812B_Strip.c ****     if(strip->effectsCounter < 10)
 949              		.loc 1 124 1 view .LVU240
 950 000a 80E80E00 		stm	r0, {r1, r2, r3}
 125:Core/Src/NOS_WS2812B_Strip.c ****     {
 951              		.loc 1 125 5 is_stmt 1 view .LVU241
 125:Core/Src/NOS_WS2812B_Strip.c ****     {
 952              		.loc 1 125 13 is_stmt 0 view .LVU242
 953 000e 94F85001 		ldrb	r0, [r4, #336]	@ zero_extendqisi2
 125:Core/Src/NOS_WS2812B_Strip.c ****     {
 954              		.loc 1 125 7 view .LVU243
 955 0012 0928     		cmp	r0, #9
 956 0014 0AD8     		bhi	.L48
 127:Core/Src/NOS_WS2812B_Strip.c ****         {
 957              		.loc 1 127 9 is_stmt 1 view .LVU244
 127:Core/Src/NOS_WS2812B_Strip.c ****         {
 958              		.loc 1 127 22 is_stmt 0 view .LVU245
 959 0016 9DF83330 		ldrb	r3, [sp, #51]	@ zero_extendqisi2
 127:Core/Src/NOS_WS2812B_Strip.c ****         {
 960              		.loc 1 127 9 view .LVU246
 961 001a 202B     		cmp	r3, #32
 962 001c 0BD0     		beq	.L50
 963 001e 212B     		cmp	r3, #33
 964 0020 18D0     		beq	.L51
 965              	.L52:
 137:Core/Src/NOS_WS2812B_Strip.c ****     }
 966              		.loc 1 137 9 is_stmt 1 view .LVU247
 137:Core/Src/NOS_WS2812B_Strip.c ****     }
 967              		.loc 1 137 14 is_stmt 0 view .LVU248
 968 0022 94F85031 		ldrb	r3, [r4, #336]	@ zero_extendqisi2
 137:Core/Src/NOS_WS2812B_Strip.c ****     }
 969              		.loc 1 137 30 view .LVU249
ARM GAS  C:\Users\igorn\AppData\Local\Temp\cco5MKdE.s 			page 22


 970 0026 0133     		adds	r3, r3, #1
 971 0028 84F85031 		strb	r3, [r4, #336]
 972              	.L48:
 139:Core/Src/NOS_WS2812B_Strip.c **** 
 973              		.loc 1 139 1 view .LVU250
 974 002c 02B0     		add	sp, sp, #8
 975              		.cfi_remember_state
 976              		.cfi_def_cfa_offset 24
 977              		@ sp needed
 978 002e BDE81040 		pop	{r4, lr}
 979              		.cfi_restore 14
 980              		.cfi_restore 4
 981              		.cfi_def_cfa_offset 16
 982              	.LVL89:
 139:Core/Src/NOS_WS2812B_Strip.c **** 
 983              		.loc 1 139 1 view .LVU251
 984 0032 04B0     		add	sp, sp, #16
 985              		.cfi_def_cfa_offset 0
 986 0034 7047     		bx	lr
 987              	.LVL90:
 988              	.L50:
 989              		.cfi_restore_state
 130:Core/Src/NOS_WS2812B_Strip.c ****                 break;
 990              		.loc 1 130 17 is_stmt 1 view .LVU252
 991 0036 4001     		lsls	r0, r0, #5
 992 0038 1030     		adds	r0, r0, #16
 993 003a BDF83030 		ldrh	r3, [sp, #48]
 994 003e 0093     		str	r3, [sp]
 995 0040 BDF82E30 		ldrh	r3, [sp, #46]
 996 0044 BDF82A20 		ldrh	r2, [sp, #42]
 997 0048 BDF82810 		ldrh	r1, [sp, #40]
 998 004c 2044     		add	r0, r0, r4
 999 004e FFF7FEFF 		bl	NOS_WS2812B_Strip_Effect_Breathe_Init
 1000              	.LVL91:
 131:Core/Src/NOS_WS2812B_Strip.c ****             case 0x21:
 1001              		.loc 1 131 17 view .LVU253
 1002 0052 E6E7     		b	.L52
 1003              	.L51:
 133:Core/Src/NOS_WS2812B_Strip.c ****                 break;
 1004              		.loc 1 133 17 view .LVU254
 1005 0054 4001     		lsls	r0, r0, #5
 1006 0056 1030     		adds	r0, r0, #16
 1007 0058 BDF83030 		ldrh	r3, [sp, #48]
 1008 005c 0093     		str	r3, [sp]
 1009 005e BDF82E30 		ldrh	r3, [sp, #46]
 1010 0062 BDF82A20 		ldrh	r2, [sp, #42]
 1011 0066 BDF82810 		ldrh	r1, [sp, #40]
 1012 006a 2044     		add	r0, r0, r4
 1013 006c FFF7FEFF 		bl	NOS_WS2812B_Strip_Effect_Rainbow_Init
 1014              	.LVL92:
 134:Core/Src/NOS_WS2812B_Strip.c ****         }
 1015              		.loc 1 134 17 view .LVU255
 1016 0070 D7E7     		b	.L52
 1017              		.cfi_endproc
 1018              	.LFE77:
 1020              		.section	.text.NOS_WS2812B_Strip_Effects_UpdateEffect,"ax",%progbits
 1021              		.align	1
ARM GAS  C:\Users\igorn\AppData\Local\Temp\cco5MKdE.s 			page 23


 1022              		.global	NOS_WS2812B_Strip_Effects_UpdateEffect
 1023              		.syntax unified
 1024              		.thumb
 1025              		.thumb_func
 1027              	NOS_WS2812B_Strip_Effects_UpdateEffect:
 1028              	.LVL93:
 1029              	.LFB80:
 179:Core/Src/NOS_WS2812B_Strip.c ****     if(pos < 10)
 1030              		.loc 1 179 1 view -0
 1031              		.cfi_startproc
 1032              		@ args = 40, pretend = 16, frame = 0
 1033              		@ frame_needed = 0, uses_anonymous_args = 0
 179:Core/Src/NOS_WS2812B_Strip.c ****     if(pos < 10)
 1034              		.loc 1 179 1 is_stmt 0 view .LVU257
 1035 0000 84B0     		sub	sp, sp, #16
 1036              		.cfi_def_cfa_offset 16
 1037 0002 00B5     		push	{lr}
 1038              		.cfi_def_cfa_offset 20
 1039              		.cfi_offset 14, -20
 1040 0004 83B0     		sub	sp, sp, #12
 1041              		.cfi_def_cfa_offset 32
 1042 0006 0DF1140C 		add	ip, sp, #20
 1043 000a 8CE80E00 		stm	ip, {r1, r2, r3}
 1044 000e 9DF83430 		ldrb	r3, [sp, #52]	@ zero_extendqisi2
 180:Core/Src/NOS_WS2812B_Strip.c ****     {
 1045              		.loc 1 180 5 is_stmt 1 view .LVU258
 180:Core/Src/NOS_WS2812B_Strip.c ****     {
 1046              		.loc 1 180 7 is_stmt 0 view .LVU259
 1047 0012 092B     		cmp	r3, #9
 1048 0014 05D8     		bhi	.L54
 182:Core/Src/NOS_WS2812B_Strip.c ****         {
 1049              		.loc 1 182 9 is_stmt 1 view .LVU260
 182:Core/Src/NOS_WS2812B_Strip.c ****         {
 1050              		.loc 1 182 22 is_stmt 0 view .LVU261
 1051 0016 9DF83320 		ldrb	r2, [sp, #51]	@ zero_extendqisi2
 182:Core/Src/NOS_WS2812B_Strip.c ****         {
 1052              		.loc 1 182 9 view .LVU262
 1053 001a 202A     		cmp	r2, #32
 1054 001c 06D0     		beq	.L56
 1055 001e 212A     		cmp	r2, #33
 1056 0020 14D0     		beq	.L57
 1057              	.LVL94:
 1058              	.L54:
 192:Core/Src/NOS_WS2812B_Strip.c **** 
 1059              		.loc 1 192 1 view .LVU263
 1060 0022 03B0     		add	sp, sp, #12
 1061              		.cfi_remember_state
 1062              		.cfi_def_cfa_offset 20
 1063              		@ sp needed
 1064 0024 5DF804EB 		ldr	lr, [sp], #4
 1065              		.cfi_restore 14
 1066              		.cfi_def_cfa_offset 16
 1067 0028 04B0     		add	sp, sp, #16
 1068              		.cfi_def_cfa_offset 0
 1069 002a 7047     		bx	lr
 1070              	.LVL95:
 1071              	.L56:
ARM GAS  C:\Users\igorn\AppData\Local\Temp\cco5MKdE.s 			page 24


 1072              		.cfi_restore_state
 185:Core/Src/NOS_WS2812B_Strip.c ****                 break;
 1073              		.loc 1 185 17 is_stmt 1 view .LVU264
 1074 002c 5B01     		lsls	r3, r3, #5
 1075 002e 03F1100C 		add	ip, r3, #16
 1076 0032 BDF83030 		ldrh	r3, [sp, #48]
 1077 0036 0093     		str	r3, [sp]
 1078 0038 BDF82E30 		ldrh	r3, [sp, #46]
 1079 003c BDF82A20 		ldrh	r2, [sp, #42]
 1080 0040 BDF82810 		ldrh	r1, [sp, #40]
 1081 0044 6044     		add	r0, r0, ip
 1082              	.LVL96:
 185:Core/Src/NOS_WS2812B_Strip.c ****                 break;
 1083              		.loc 1 185 17 is_stmt 0 view .LVU265
 1084 0046 FFF7FEFF 		bl	NOS_WS2812B_Strip_Effect_Breathe_Init
 1085              	.LVL97:
 186:Core/Src/NOS_WS2812B_Strip.c ****             case 0x21:
 1086              		.loc 1 186 17 is_stmt 1 view .LVU266
 1087 004a EAE7     		b	.L54
 1088              	.LVL98:
 1089              	.L57:
 188:Core/Src/NOS_WS2812B_Strip.c ****                 break;
 1090              		.loc 1 188 17 view .LVU267
 1091 004c 5B01     		lsls	r3, r3, #5
 1092 004e 03F1100C 		add	ip, r3, #16
 1093 0052 BDF83030 		ldrh	r3, [sp, #48]
 1094 0056 0093     		str	r3, [sp]
 1095 0058 BDF82E30 		ldrh	r3, [sp, #46]
 1096 005c BDF82A20 		ldrh	r2, [sp, #42]
 1097 0060 BDF82810 		ldrh	r1, [sp, #40]
 1098 0064 6044     		add	r0, r0, ip
 1099              	.LVL99:
 188:Core/Src/NOS_WS2812B_Strip.c ****                 break;
 1100              		.loc 1 188 17 is_stmt 0 view .LVU268
 1101 0066 FFF7FEFF 		bl	NOS_WS2812B_Strip_Effect_Rainbow_Init
 1102              	.LVL100:
 189:Core/Src/NOS_WS2812B_Strip.c ****         }
 1103              		.loc 1 189 17 is_stmt 1 view .LVU269
 192:Core/Src/NOS_WS2812B_Strip.c **** 
 1104              		.loc 1 192 1 is_stmt 0 view .LVU270
 1105 006a DAE7     		b	.L54
 1106              		.cfi_endproc
 1107              	.LFE80:
 1109              		.section	.text.NOS_WS2812B_Strip_Effect_Rainbow_Copy,"ax",%progbits
 1110              		.align	1
 1111              		.global	NOS_WS2812B_Strip_Effect_Rainbow_Copy
 1112              		.syntax unified
 1113              		.thumb
 1114              		.thumb_func
 1116              	NOS_WS2812B_Strip_Effect_Rainbow_Copy:
 1117              	.LVL101:
 1118              	.LFB82:
 204:Core/Src/NOS_WS2812B_Strip.c **** 
 205:Core/Src/NOS_WS2812B_Strip.c **** void NOS_WS2812B_Strip_Effect_Rainbow_Copy(Effect_Struct* destination,Effect_Struct* source)
 206:Core/Src/NOS_WS2812B_Strip.c **** {
 1119              		.loc 1 206 1 is_stmt 1 view -0
 1120              		.cfi_startproc
ARM GAS  C:\Users\igorn\AppData\Local\Temp\cco5MKdE.s 			page 25


 1121              		@ args = 0, pretend = 0, frame = 0
 1122              		@ frame_needed = 0, uses_anonymous_args = 0
 1123              		.loc 1 206 1 is_stmt 0 view .LVU272
 1124 0000 38B5     		push	{r3, r4, r5, lr}
 1125              		.cfi_def_cfa_offset 16
 1126              		.cfi_offset 3, -16
 1127              		.cfi_offset 4, -12
 1128              		.cfi_offset 5, -8
 1129              		.cfi_offset 14, -4
 1130 0002 0546     		mov	r5, r0
 1131 0004 0C46     		mov	r4, r1
 207:Core/Src/NOS_WS2812B_Strip.c ****     NOS_Math_SinValue_Init(&destination->value,source->minValue,source->maxValue,source->step.data)
 1132              		.loc 1 207 5 is_stmt 1 view .LVU273
 1133 0006 CB8A     		ldrh	r3, [r1, #22]
 1134 0008 8A8B     		ldrh	r2, [r1, #28]
 1135 000a 498B     		ldrh	r1, [r1, #26]
 1136              	.LVL102:
 1137              		.loc 1 207 5 is_stmt 0 view .LVU274
 1138 000c FFF7FEFF 		bl	NOS_Math_SinValue_Init
 1139              	.LVL103:
 208:Core/Src/NOS_WS2812B_Strip.c ****     destination->minValue = source->minValue;
 1140              		.loc 1 208 5 is_stmt 1 view .LVU275
 1141              		.loc 1 208 35 is_stmt 0 view .LVU276
 1142 0010 638B     		ldrh	r3, [r4, #26]
 1143              		.loc 1 208 27 view .LVU277
 1144 0012 6B83     		strh	r3, [r5, #26]	@ movhi
 209:Core/Src/NOS_WS2812B_Strip.c ****     destination->maxValue = source->maxValue;
 1145              		.loc 1 209 5 is_stmt 1 view .LVU278
 1146              		.loc 1 209 35 is_stmt 0 view .LVU279
 1147 0014 A38B     		ldrh	r3, [r4, #28]
 1148              		.loc 1 209 27 view .LVU280
 1149 0016 AB83     		strh	r3, [r5, #28]	@ movhi
 210:Core/Src/NOS_WS2812B_Strip.c ****     destination->speed.data = source->speed.data;
 1150              		.loc 1 210 5 is_stmt 1 view .LVU281
 1151              		.loc 1 210 44 is_stmt 0 view .LVU282
 1152 0018 A38A     		ldrh	r3, [r4, #20]
 1153              		.loc 1 210 29 view .LVU283
 1154 001a AB82     		strh	r3, [r5, #20]	@ movhi
 211:Core/Src/NOS_WS2812B_Strip.c ****     destination->step.data = source->step.data;
 1155              		.loc 1 211 5 is_stmt 1 view .LVU284
 1156              		.loc 1 211 42 is_stmt 0 view .LVU285
 1157 001c E38A     		ldrh	r3, [r4, #22]
 1158              		.loc 1 211 28 view .LVU286
 1159 001e EB82     		strh	r3, [r5, #22]	@ movhi
 212:Core/Src/NOS_WS2812B_Strip.c ****     destination->enabled = true;
 1160              		.loc 1 212 5 is_stmt 1 view .LVU287
 1161              		.loc 1 212 26 is_stmt 0 view .LVU288
 1162 0020 0123     		movs	r3, #1
 1163 0022 AB77     		strb	r3, [r5, #30]
 213:Core/Src/NOS_WS2812B_Strip.c ****     destination->effectId = 0x21;  
 1164              		.loc 1 213 5 is_stmt 1 view .LVU289
 1165              		.loc 1 213 27 is_stmt 0 view .LVU290
 1166 0024 2123     		movs	r3, #33
 1167 0026 EB77     		strb	r3, [r5, #31]
 214:Core/Src/NOS_WS2812B_Strip.c **** }
 1168              		.loc 1 214 1 view .LVU291
 1169 0028 38BD     		pop	{r3, r4, r5, pc}
ARM GAS  C:\Users\igorn\AppData\Local\Temp\cco5MKdE.s 			page 26


 1170              		.loc 1 214 1 view .LVU292
 1171              		.cfi_endproc
 1172              	.LFE82:
 1174              		.section	.text.NOS_WS2812B_Strip_Effect_Rainbow_Handler,"ax",%progbits
 1175              		.align	1
 1176              		.global	NOS_WS2812B_Strip_Effect_Rainbow_Handler
 1177              		.syntax unified
 1178              		.thumb
 1179              		.thumb_func
 1181              	NOS_WS2812B_Strip_Effect_Rainbow_Handler:
 1182              	.LVL104:
 1183              	.LFB83:
 215:Core/Src/NOS_WS2812B_Strip.c **** 
 216:Core/Src/NOS_WS2812B_Strip.c **** void NOS_WS2812B_Strip_Effect_Rainbow_Handler(WS2812B_Strip* strip,Effect_Struct* effect)
 217:Core/Src/NOS_WS2812B_Strip.c **** {
 1184              		.loc 1 217 1 is_stmt 1 view -0
 1185              		.cfi_startproc
 1186              		@ args = 0, pretend = 0, frame = 8
 1187              		@ frame_needed = 0, uses_anonymous_args = 0
 218:Core/Src/NOS_WS2812B_Strip.c ****     if(strip != NULL)
 1188              		.loc 1 218 5 view .LVU294
 1189              		.loc 1 218 7 is_stmt 0 view .LVU295
 1190 0000 0028     		cmp	r0, #0
 1191 0002 00F00181 		beq	.L80
 217:Core/Src/NOS_WS2812B_Strip.c ****     if(strip != NULL)
 1192              		.loc 1 217 1 view .LVU296
 1193 0006 70B5     		push	{r4, r5, r6, lr}
 1194              		.cfi_def_cfa_offset 16
 1195              		.cfi_offset 4, -16
 1196              		.cfi_offset 5, -12
 1197              		.cfi_offset 6, -8
 1198              		.cfi_offset 14, -4
 1199 0008 82B0     		sub	sp, sp, #8
 1200              		.cfi_def_cfa_offset 24
 1201 000a 0C46     		mov	r4, r1
 1202 000c 0546     		mov	r5, r0
 219:Core/Src/NOS_WS2812B_Strip.c ****     {
 220:Core/Src/NOS_WS2812B_Strip.c ****         if(effect != NULL)
 1203              		.loc 1 220 9 is_stmt 1 view .LVU297
 1204              		.loc 1 220 11 is_stmt 0 view .LVU298
 1205 000e 41B1     		cbz	r1, .L61
 221:Core/Src/NOS_WS2812B_Strip.c ****         {
 222:Core/Src/NOS_WS2812B_Strip.c ****             if(effect->enabled)
 1206              		.loc 1 222 13 is_stmt 1 view .LVU299
 1207              		.loc 1 222 22 is_stmt 0 view .LVU300
 1208 0010 8B7F     		ldrb	r3, [r1, #30]	@ zero_extendqisi2
 1209              		.loc 1 222 15 view .LVU301
 1210 0012 33B1     		cbz	r3, .L61
 223:Core/Src/NOS_WS2812B_Strip.c ****             {
 224:Core/Src/NOS_WS2812B_Strip.c ****                 if(effect->timer > effect->speed.data)
 1211              		.loc 1 224 17 is_stmt 1 view .LVU302
 1212              		.loc 1 224 26 is_stmt 0 view .LVU303
 1213 0014 0A8B     		ldrh	r2, [r1, #24]
 1214              		.loc 1 224 49 view .LVU304
 1215 0016 8B8A     		ldrh	r3, [r1, #20]
 1216              		.loc 1 224 19 view .LVU305
 1217 0018 9A42     		cmp	r2, r3
ARM GAS  C:\Users\igorn\AppData\Local\Temp\cco5MKdE.s 			page 27


 1218 001a 04D8     		bhi	.L83
 1219              	.LVL105:
 1220              	.L63:
 225:Core/Src/NOS_WS2812B_Strip.c ****                 {
 226:Core/Src/NOS_WS2812B_Strip.c ****                     NOS_Math_SinValue_Handler(&effect->value);
 227:Core/Src/NOS_WS2812B_Strip.c **** 
 228:Core/Src/NOS_WS2812B_Strip.c ****                     uint16_t number = NOS_Math_GetSinValue(&effect->value);
 229:Core/Src/NOS_WS2812B_Strip.c ****                     uint8_t iteration = number / 0x7F;
 230:Core/Src/NOS_WS2812B_Strip.c **** 
 231:Core/Src/NOS_WS2812B_Strip.c ****                     PixelColor curr = { 0,0,0 };
 232:Core/Src/NOS_WS2812B_Strip.c ****                     number = number - 0x7F * iteration;
 233:Core/Src/NOS_WS2812B_Strip.c **** 
 234:Core/Src/NOS_WS2812B_Strip.c ****                     switch (iteration)
 235:Core/Src/NOS_WS2812B_Strip.c ****                     {
 236:Core/Src/NOS_WS2812B_Strip.c ****                         case 0:
 237:Core/Src/NOS_WS2812B_Strip.c ****                         curr = NOS_GetBaseColor((NOS_BaseColors)iteration);
 238:Core/Src/NOS_WS2812B_Strip.c ****                         curr.G = number;
 239:Core/Src/NOS_WS2812B_Strip.c ****                         break;
 240:Core/Src/NOS_WS2812B_Strip.c **** 
 241:Core/Src/NOS_WS2812B_Strip.c ****                         case 1:
 242:Core/Src/NOS_WS2812B_Strip.c ****                         curr = NOS_GetBaseColor((NOS_BaseColors)iteration);
 243:Core/Src/NOS_WS2812B_Strip.c ****                         curr.G = 0x7F + number;
 244:Core/Src/NOS_WS2812B_Strip.c ****                         break;
 245:Core/Src/NOS_WS2812B_Strip.c **** 
 246:Core/Src/NOS_WS2812B_Strip.c ****                         case 2:
 247:Core/Src/NOS_WS2812B_Strip.c ****                         curr = NOS_GetBaseColor((NOS_BaseColors)iteration);
 248:Core/Src/NOS_WS2812B_Strip.c ****                         curr.B = 0xFF - number;
 249:Core/Src/NOS_WS2812B_Strip.c ****                         break;
 250:Core/Src/NOS_WS2812B_Strip.c **** 
 251:Core/Src/NOS_WS2812B_Strip.c ****                         case 3:
 252:Core/Src/NOS_WS2812B_Strip.c ****                         curr = NOS_GetBaseColor((NOS_BaseColors)iteration);
 253:Core/Src/NOS_WS2812B_Strip.c ****                         curr.B = 0x7F - number;
 254:Core/Src/NOS_WS2812B_Strip.c ****                         break;
 255:Core/Src/NOS_WS2812B_Strip.c **** 
 256:Core/Src/NOS_WS2812B_Strip.c ****                         case 4:
 257:Core/Src/NOS_WS2812B_Strip.c ****                         curr = NOS_GetBaseColor((NOS_BaseColors)iteration);
 258:Core/Src/NOS_WS2812B_Strip.c ****                         curr.R = number;
 259:Core/Src/NOS_WS2812B_Strip.c ****                         break;
 260:Core/Src/NOS_WS2812B_Strip.c **** 
 261:Core/Src/NOS_WS2812B_Strip.c ****                         case 5:
 262:Core/Src/NOS_WS2812B_Strip.c ****                         curr = NOS_GetBaseColor((NOS_BaseColors)iteration);
 263:Core/Src/NOS_WS2812B_Strip.c ****                         curr.R = 0x7F + number;
 264:Core/Src/NOS_WS2812B_Strip.c ****                         break;
 265:Core/Src/NOS_WS2812B_Strip.c **** 
 266:Core/Src/NOS_WS2812B_Strip.c ****                         case 6:
 267:Core/Src/NOS_WS2812B_Strip.c ****                         curr = NOS_GetBaseColor((NOS_BaseColors)iteration);
 268:Core/Src/NOS_WS2812B_Strip.c ****                         curr.G = 0xFF - number;
 269:Core/Src/NOS_WS2812B_Strip.c ****                         break;
 270:Core/Src/NOS_WS2812B_Strip.c **** 
 271:Core/Src/NOS_WS2812B_Strip.c ****                         case 7:
 272:Core/Src/NOS_WS2812B_Strip.c ****                         curr = NOS_GetBaseColor((NOS_BaseColors)iteration);
 273:Core/Src/NOS_WS2812B_Strip.c ****                         curr.G = 0x7F - number;
 274:Core/Src/NOS_WS2812B_Strip.c ****                         break;
 275:Core/Src/NOS_WS2812B_Strip.c **** 
 276:Core/Src/NOS_WS2812B_Strip.c ****                         case 8:
 277:Core/Src/NOS_WS2812B_Strip.c ****                         curr = NOS_GetBaseColor((NOS_BaseColors)iteration);
 278:Core/Src/NOS_WS2812B_Strip.c ****                         curr.B = number;
ARM GAS  C:\Users\igorn\AppData\Local\Temp\cco5MKdE.s 			page 28


 279:Core/Src/NOS_WS2812B_Strip.c ****                         break;
 280:Core/Src/NOS_WS2812B_Strip.c **** 
 281:Core/Src/NOS_WS2812B_Strip.c ****                         case 9:
 282:Core/Src/NOS_WS2812B_Strip.c ****                         curr = NOS_GetBaseColor((NOS_BaseColors)iteration);
 283:Core/Src/NOS_WS2812B_Strip.c ****                         curr.B = 0x7F + number;
 284:Core/Src/NOS_WS2812B_Strip.c ****                         break;
 285:Core/Src/NOS_WS2812B_Strip.c **** 
 286:Core/Src/NOS_WS2812B_Strip.c ****                         case 10:
 287:Core/Src/NOS_WS2812B_Strip.c ****                         curr = NOS_GetBaseColor((NOS_BaseColors)iteration);
 288:Core/Src/NOS_WS2812B_Strip.c ****                         curr.R = 0xFF - number;
 289:Core/Src/NOS_WS2812B_Strip.c ****                         break;
 290:Core/Src/NOS_WS2812B_Strip.c **** 
 291:Core/Src/NOS_WS2812B_Strip.c ****                         case 11:
 292:Core/Src/NOS_WS2812B_Strip.c ****                         curr = NOS_GetBaseColor((NOS_BaseColors)iteration);
 293:Core/Src/NOS_WS2812B_Strip.c ****                         curr.R = 0x7F - number;
 294:Core/Src/NOS_WS2812B_Strip.c ****                         break;
 295:Core/Src/NOS_WS2812B_Strip.c **** 
 296:Core/Src/NOS_WS2812B_Strip.c ****                         default:
 297:Core/Src/NOS_WS2812B_Strip.c ****                         break;
 298:Core/Src/NOS_WS2812B_Strip.c ****                     }
 299:Core/Src/NOS_WS2812B_Strip.c ****                     
 300:Core/Src/NOS_WS2812B_Strip.c **** 
 301:Core/Src/NOS_WS2812B_Strip.c ****                     NOS_WS2812B_Strip_ColorFill(strip,curr);
 302:Core/Src/NOS_WS2812B_Strip.c ****                     NOS_WS2812B_Strip_Update(strip);
 303:Core/Src/NOS_WS2812B_Strip.c ****                     effect->timer = 0;
 304:Core/Src/NOS_WS2812B_Strip.c ****                 }
 305:Core/Src/NOS_WS2812B_Strip.c ****                 effect->timer++;
 1221              		.loc 1 305 17 is_stmt 1 view .LVU306
 1222              		.loc 1 305 23 is_stmt 0 view .LVU307
 1223 001c 238B     		ldrh	r3, [r4, #24]
 1224              		.loc 1 305 30 view .LVU308
 1225 001e 0133     		adds	r3, r3, #1
 1226 0020 2383     		strh	r3, [r4, #24]	@ movhi
 1227              	.L61:
 306:Core/Src/NOS_WS2812B_Strip.c ****             }
 307:Core/Src/NOS_WS2812B_Strip.c ****         }
 308:Core/Src/NOS_WS2812B_Strip.c ****     }
 309:Core/Src/NOS_WS2812B_Strip.c **** }
 1228              		.loc 1 309 1 view .LVU309
 1229 0022 02B0     		add	sp, sp, #8
 1230              		.cfi_remember_state
 1231              		.cfi_def_cfa_offset 16
 1232              		@ sp needed
 1233 0024 70BD     		pop	{r4, r5, r6, pc}
 1234              	.LVL106:
 1235              	.L83:
 1236              		.cfi_restore_state
 1237              	.LBB6:
 226:Core/Src/NOS_WS2812B_Strip.c **** 
 1238              		.loc 1 226 21 is_stmt 1 view .LVU310
 1239 0026 0846     		mov	r0, r1
 1240              	.LVL107:
 226:Core/Src/NOS_WS2812B_Strip.c **** 
 1241              		.loc 1 226 21 is_stmt 0 view .LVU311
 1242 0028 FFF7FEFF 		bl	NOS_Math_SinValue_Handler
 1243              	.LVL108:
 228:Core/Src/NOS_WS2812B_Strip.c ****                     uint8_t iteration = number / 0x7F;
ARM GAS  C:\Users\igorn\AppData\Local\Temp\cco5MKdE.s 			page 29


 1244              		.loc 1 228 21 is_stmt 1 view .LVU312
 228:Core/Src/NOS_WS2812B_Strip.c ****                     uint8_t iteration = number / 0x7F;
 1245              		.loc 1 228 39 is_stmt 0 view .LVU313
 1246 002c 2046     		mov	r0, r4
 1247 002e FFF7FEFF 		bl	NOS_Math_GetSinValue
 1248              	.LVL109:
 228:Core/Src/NOS_WS2812B_Strip.c ****                     uint8_t iteration = number / 0x7F;
 1249              		.loc 1 228 30 view .LVU314
 1250 0032 82B2     		uxth	r2, r0
 1251              	.LVL110:
 229:Core/Src/NOS_WS2812B_Strip.c **** 
 1252              		.loc 1 229 21 is_stmt 1 view .LVU315
 229:Core/Src/NOS_WS2812B_Strip.c **** 
 1253              		.loc 1 229 29 is_stmt 0 view .LVU316
 1254 0034 754B     		ldr	r3, .L84
 1255 0036 A3FB0213 		umull	r1, r3, r3, r2
 1256 003a D11A     		subs	r1, r2, r3
 1257 003c 03EB5100 		add	r0, r3, r1, lsr #1
 1258 0040 C0F38710 		ubfx	r0, r0, #6, #8
 1259              	.LVL111:
 231:Core/Src/NOS_WS2812B_Strip.c ****                     number = number - 0x7F * iteration;
 1260              		.loc 1 231 21 is_stmt 1 view .LVU317
 231:Core/Src/NOS_WS2812B_Strip.c ****                     number = number - 0x7F * iteration;
 1261              		.loc 1 231 32 is_stmt 0 view .LVU318
 1262 0044 0023     		movs	r3, #0
 1263 0046 8DF80430 		strb	r3, [sp, #4]
 1264 004a 8DF80530 		strb	r3, [sp, #5]
 1265 004e 8DF80630 		strb	r3, [sp, #6]
 232:Core/Src/NOS_WS2812B_Strip.c **** 
 1266              		.loc 1 232 21 is_stmt 1 view .LVU319
 232:Core/Src/NOS_WS2812B_Strip.c **** 
 1267              		.loc 1 232 37 is_stmt 0 view .LVU320
 1268 0052 A0EBC013 		sub	r3, r0, r0, lsl #7
 1269 0056 9BB2     		uxth	r3, r3
 232:Core/Src/NOS_WS2812B_Strip.c **** 
 1270              		.loc 1 232 28 view .LVU321
 1271 0058 1344     		add	r3, r3, r2
 1272 005a 9EB2     		uxth	r6, r3
 1273              	.LVL112:
 234:Core/Src/NOS_WS2812B_Strip.c ****                     {
 1274              		.loc 1 234 21 is_stmt 1 view .LVU322
 1275 005c 0B28     		cmp	r0, #11
 1276 005e 15D8     		bhi	.L64
 1277 0060 DFE800F0 		tbb	[pc, r0]
 1278              	.L66:
 1279 0064 06       		.byte	(.L77-.L66)/2
 1280 0065 1E       		.byte	(.L76-.L66)/2
 1281 0066 2F       		.byte	(.L75-.L66)/2
 1282 0067 3F       		.byte	(.L74-.L66)/2
 1283 0068 50       		.byte	(.L73-.L66)/2
 1284 0069 5F       		.byte	(.L72-.L66)/2
 1285 006a 70       		.byte	(.L71-.L66)/2
 1286 006b 80       		.byte	(.L70-.L66)/2
 1287 006c 91       		.byte	(.L69-.L66)/2
 1288 006d A0       		.byte	(.L68-.L66)/2
 1289 006e B1       		.byte	(.L67-.L66)/2
 1290 006f C1       		.byte	(.L65-.L66)/2
ARM GAS  C:\Users\igorn\AppData\Local\Temp\cco5MKdE.s 			page 30


 1291              		.p2align 1
 1292              	.L77:
 237:Core/Src/NOS_WS2812B_Strip.c ****                         curr.G = number;
 1293              		.loc 1 237 25 view .LVU323
 237:Core/Src/NOS_WS2812B_Strip.c ****                         curr.G = number;
 1294              		.loc 1 237 32 is_stmt 0 view .LVU324
 1295 0070 FFF7FEFF 		bl	NOS_GetBaseColor
 1296              	.LVL113:
 237:Core/Src/NOS_WS2812B_Strip.c ****                         curr.G = number;
 1297              		.loc 1 237 32 view .LVU325
 1298 0074 8DF80400 		strb	r0, [sp, #4]
 1299 0078 C0F30723 		ubfx	r3, r0, #8, #8
 1300 007c 8DF80530 		strb	r3, [sp, #5]
 1301 0080 C0F30740 		ubfx	r0, r0, #16, #8
 1302 0084 8DF80600 		strb	r0, [sp, #6]
 238:Core/Src/NOS_WS2812B_Strip.c ****                         break;
 1303              		.loc 1 238 25 is_stmt 1 view .LVU326
 238:Core/Src/NOS_WS2812B_Strip.c ****                         break;
 1304              		.loc 1 238 32 is_stmt 0 view .LVU327
 1305 0088 8DF80560 		strb	r6, [sp, #5]
 239:Core/Src/NOS_WS2812B_Strip.c **** 
 1306              		.loc 1 239 25 is_stmt 1 view .LVU328
 1307              	.L64:
 301:Core/Src/NOS_WS2812B_Strip.c ****                     NOS_WS2812B_Strip_Update(strip);
 1308              		.loc 1 301 21 view .LVU329
 1309 008c 0199     		ldr	r1, [sp, #4]
 1310 008e 2846     		mov	r0, r5
 1311 0090 FFF7FEFF 		bl	NOS_WS2812B_Strip_ColorFill
 1312              	.LVL114:
 302:Core/Src/NOS_WS2812B_Strip.c ****                     effect->timer = 0;
 1313              		.loc 1 302 21 view .LVU330
 1314 0094 2846     		mov	r0, r5
 1315 0096 FFF7FEFF 		bl	NOS_WS2812B_Strip_Update
 1316              	.LVL115:
 303:Core/Src/NOS_WS2812B_Strip.c ****                 }
 1317              		.loc 1 303 21 view .LVU331
 303:Core/Src/NOS_WS2812B_Strip.c ****                 }
 1318              		.loc 1 303 35 is_stmt 0 view .LVU332
 1319 009a 0023     		movs	r3, #0
 1320 009c 2383     		strh	r3, [r4, #24]	@ movhi
 1321 009e BDE7     		b	.L63
 1322              	.LVL116:
 1323              	.L76:
 242:Core/Src/NOS_WS2812B_Strip.c ****                         curr.G = 0x7F + number;
 1324              		.loc 1 242 25 is_stmt 1 view .LVU333
 242:Core/Src/NOS_WS2812B_Strip.c ****                         curr.G = 0x7F + number;
 1325              		.loc 1 242 32 is_stmt 0 view .LVU334
 1326 00a0 FFF7FEFF 		bl	NOS_GetBaseColor
 1327              	.LVL117:
 242:Core/Src/NOS_WS2812B_Strip.c ****                         curr.G = 0x7F + number;
 1328              		.loc 1 242 32 view .LVU335
 1329 00a4 8DF80400 		strb	r0, [sp, #4]
 1330 00a8 C0F30723 		ubfx	r3, r0, #8, #8
 1331 00ac 8DF80530 		strb	r3, [sp, #5]
 1332 00b0 C0F30740 		ubfx	r0, r0, #16, #8
 1333 00b4 8DF80600 		strb	r0, [sp, #6]
 243:Core/Src/NOS_WS2812B_Strip.c ****                         break;
ARM GAS  C:\Users\igorn\AppData\Local\Temp\cco5MKdE.s 			page 31


 1334              		.loc 1 243 25 is_stmt 1 view .LVU336
 243:Core/Src/NOS_WS2812B_Strip.c ****                         break;
 1335              		.loc 1 243 39 is_stmt 0 view .LVU337
 1336 00b8 06F17F03 		add	r3, r6, #127
 243:Core/Src/NOS_WS2812B_Strip.c ****                         break;
 1337              		.loc 1 243 32 view .LVU338
 1338 00bc 8DF80530 		strb	r3, [sp, #5]
 244:Core/Src/NOS_WS2812B_Strip.c **** 
 1339              		.loc 1 244 25 is_stmt 1 view .LVU339
 1340 00c0 E4E7     		b	.L64
 1341              	.LVL118:
 1342              	.L75:
 247:Core/Src/NOS_WS2812B_Strip.c ****                         curr.B = 0xFF - number;
 1343              		.loc 1 247 25 view .LVU340
 247:Core/Src/NOS_WS2812B_Strip.c ****                         curr.B = 0xFF - number;
 1344              		.loc 1 247 32 is_stmt 0 view .LVU341
 1345 00c2 FFF7FEFF 		bl	NOS_GetBaseColor
 1346              	.LVL119:
 247:Core/Src/NOS_WS2812B_Strip.c ****                         curr.B = 0xFF - number;
 1347              		.loc 1 247 32 view .LVU342
 1348 00c6 8DF80400 		strb	r0, [sp, #4]
 1349 00ca C0F30723 		ubfx	r3, r0, #8, #8
 1350 00ce 8DF80530 		strb	r3, [sp, #5]
 1351 00d2 C0F30740 		ubfx	r0, r0, #16, #8
 1352 00d6 8DF80600 		strb	r0, [sp, #6]
 248:Core/Src/NOS_WS2812B_Strip.c ****                         break;
 1353              		.loc 1 248 25 is_stmt 1 view .LVU343
 248:Core/Src/NOS_WS2812B_Strip.c ****                         break;
 1354              		.loc 1 248 39 is_stmt 0 view .LVU344
 1355 00da F343     		mvns	r3, r6
 248:Core/Src/NOS_WS2812B_Strip.c ****                         break;
 1356              		.loc 1 248 32 view .LVU345
 1357 00dc 8DF80630 		strb	r3, [sp, #6]
 249:Core/Src/NOS_WS2812B_Strip.c **** 
 1358              		.loc 1 249 25 is_stmt 1 view .LVU346
 1359 00e0 D4E7     		b	.L64
 1360              	.LVL120:
 1361              	.L74:
 252:Core/Src/NOS_WS2812B_Strip.c ****                         curr.B = 0x7F - number;
 1362              		.loc 1 252 25 view .LVU347
 252:Core/Src/NOS_WS2812B_Strip.c ****                         curr.B = 0x7F - number;
 1363              		.loc 1 252 32 is_stmt 0 view .LVU348
 1364 00e2 FFF7FEFF 		bl	NOS_GetBaseColor
 1365              	.LVL121:
 252:Core/Src/NOS_WS2812B_Strip.c ****                         curr.B = 0x7F - number;
 1366              		.loc 1 252 32 view .LVU349
 1367 00e6 8DF80400 		strb	r0, [sp, #4]
 1368 00ea C0F30723 		ubfx	r3, r0, #8, #8
 1369 00ee 8DF80530 		strb	r3, [sp, #5]
 1370 00f2 C0F30740 		ubfx	r0, r0, #16, #8
 1371 00f6 8DF80600 		strb	r0, [sp, #6]
 253:Core/Src/NOS_WS2812B_Strip.c ****                         break;
 1372              		.loc 1 253 25 is_stmt 1 view .LVU350
 253:Core/Src/NOS_WS2812B_Strip.c ****                         break;
 1373              		.loc 1 253 39 is_stmt 0 view .LVU351
 1374 00fa C6F17F03 		rsb	r3, r6, #127
 253:Core/Src/NOS_WS2812B_Strip.c ****                         break;
ARM GAS  C:\Users\igorn\AppData\Local\Temp\cco5MKdE.s 			page 32


 1375              		.loc 1 253 32 view .LVU352
 1376 00fe 8DF80630 		strb	r3, [sp, #6]
 254:Core/Src/NOS_WS2812B_Strip.c **** 
 1377              		.loc 1 254 25 is_stmt 1 view .LVU353
 1378 0102 C3E7     		b	.L64
 1379              	.LVL122:
 1380              	.L73:
 257:Core/Src/NOS_WS2812B_Strip.c ****                         curr.R = number;
 1381              		.loc 1 257 25 view .LVU354
 257:Core/Src/NOS_WS2812B_Strip.c ****                         curr.R = number;
 1382              		.loc 1 257 32 is_stmt 0 view .LVU355
 1383 0104 FFF7FEFF 		bl	NOS_GetBaseColor
 1384              	.LVL123:
 257:Core/Src/NOS_WS2812B_Strip.c ****                         curr.R = number;
 1385              		.loc 1 257 32 view .LVU356
 1386 0108 8DF80400 		strb	r0, [sp, #4]
 1387 010c C0F30723 		ubfx	r3, r0, #8, #8
 1388 0110 8DF80530 		strb	r3, [sp, #5]
 1389 0114 C0F30740 		ubfx	r0, r0, #16, #8
 1390 0118 8DF80600 		strb	r0, [sp, #6]
 258:Core/Src/NOS_WS2812B_Strip.c ****                         break;
 1391              		.loc 1 258 25 is_stmt 1 view .LVU357
 258:Core/Src/NOS_WS2812B_Strip.c ****                         break;
 1392              		.loc 1 258 32 is_stmt 0 view .LVU358
 1393 011c 8DF80460 		strb	r6, [sp, #4]
 259:Core/Src/NOS_WS2812B_Strip.c **** 
 1394              		.loc 1 259 25 is_stmt 1 view .LVU359
 1395 0120 B4E7     		b	.L64
 1396              	.LVL124:
 1397              	.L72:
 262:Core/Src/NOS_WS2812B_Strip.c ****                         curr.R = 0x7F + number;
 1398              		.loc 1 262 25 view .LVU360
 262:Core/Src/NOS_WS2812B_Strip.c ****                         curr.R = 0x7F + number;
 1399              		.loc 1 262 32 is_stmt 0 view .LVU361
 1400 0122 FFF7FEFF 		bl	NOS_GetBaseColor
 1401              	.LVL125:
 262:Core/Src/NOS_WS2812B_Strip.c ****                         curr.R = 0x7F + number;
 1402              		.loc 1 262 32 view .LVU362
 1403 0126 8DF80400 		strb	r0, [sp, #4]
 1404 012a C0F30723 		ubfx	r3, r0, #8, #8
 1405 012e 8DF80530 		strb	r3, [sp, #5]
 1406 0132 C0F30740 		ubfx	r0, r0, #16, #8
 1407 0136 8DF80600 		strb	r0, [sp, #6]
 263:Core/Src/NOS_WS2812B_Strip.c ****                         break;
 1408              		.loc 1 263 25 is_stmt 1 view .LVU363
 263:Core/Src/NOS_WS2812B_Strip.c ****                         break;
 1409              		.loc 1 263 39 is_stmt 0 view .LVU364
 1410 013a 06F17F03 		add	r3, r6, #127
 263:Core/Src/NOS_WS2812B_Strip.c ****                         break;
 1411              		.loc 1 263 32 view .LVU365
 1412 013e 8DF80430 		strb	r3, [sp, #4]
 264:Core/Src/NOS_WS2812B_Strip.c **** 
 1413              		.loc 1 264 25 is_stmt 1 view .LVU366
 1414 0142 A3E7     		b	.L64
 1415              	.LVL126:
 1416              	.L71:
 267:Core/Src/NOS_WS2812B_Strip.c ****                         curr.G = 0xFF - number;
ARM GAS  C:\Users\igorn\AppData\Local\Temp\cco5MKdE.s 			page 33


 1417              		.loc 1 267 25 view .LVU367
 267:Core/Src/NOS_WS2812B_Strip.c ****                         curr.G = 0xFF - number;
 1418              		.loc 1 267 32 is_stmt 0 view .LVU368
 1419 0144 FFF7FEFF 		bl	NOS_GetBaseColor
 1420              	.LVL127:
 267:Core/Src/NOS_WS2812B_Strip.c ****                         curr.G = 0xFF - number;
 1421              		.loc 1 267 32 view .LVU369
 1422 0148 8DF80400 		strb	r0, [sp, #4]
 1423 014c C0F30723 		ubfx	r3, r0, #8, #8
 1424 0150 8DF80530 		strb	r3, [sp, #5]
 1425 0154 C0F30740 		ubfx	r0, r0, #16, #8
 1426 0158 8DF80600 		strb	r0, [sp, #6]
 268:Core/Src/NOS_WS2812B_Strip.c ****                         break;
 1427              		.loc 1 268 25 is_stmt 1 view .LVU370
 268:Core/Src/NOS_WS2812B_Strip.c ****                         break;
 1428              		.loc 1 268 39 is_stmt 0 view .LVU371
 1429 015c F343     		mvns	r3, r6
 268:Core/Src/NOS_WS2812B_Strip.c ****                         break;
 1430              		.loc 1 268 32 view .LVU372
 1431 015e 8DF80530 		strb	r3, [sp, #5]
 269:Core/Src/NOS_WS2812B_Strip.c **** 
 1432              		.loc 1 269 25 is_stmt 1 view .LVU373
 1433 0162 93E7     		b	.L64
 1434              	.LVL128:
 1435              	.L70:
 272:Core/Src/NOS_WS2812B_Strip.c ****                         curr.G = 0x7F - number;
 1436              		.loc 1 272 25 view .LVU374
 272:Core/Src/NOS_WS2812B_Strip.c ****                         curr.G = 0x7F - number;
 1437              		.loc 1 272 32 is_stmt 0 view .LVU375
 1438 0164 FFF7FEFF 		bl	NOS_GetBaseColor
 1439              	.LVL129:
 272:Core/Src/NOS_WS2812B_Strip.c ****                         curr.G = 0x7F - number;
 1440              		.loc 1 272 32 view .LVU376
 1441 0168 8DF80400 		strb	r0, [sp, #4]
 1442 016c C0F30723 		ubfx	r3, r0, #8, #8
 1443 0170 8DF80530 		strb	r3, [sp, #5]
 1444 0174 C0F30740 		ubfx	r0, r0, #16, #8
 1445 0178 8DF80600 		strb	r0, [sp, #6]
 273:Core/Src/NOS_WS2812B_Strip.c ****                         break;
 1446              		.loc 1 273 25 is_stmt 1 view .LVU377
 273:Core/Src/NOS_WS2812B_Strip.c ****                         break;
 1447              		.loc 1 273 39 is_stmt 0 view .LVU378
 1448 017c C6F17F03 		rsb	r3, r6, #127
 273:Core/Src/NOS_WS2812B_Strip.c ****                         break;
 1449              		.loc 1 273 32 view .LVU379
 1450 0180 8DF80530 		strb	r3, [sp, #5]
 274:Core/Src/NOS_WS2812B_Strip.c **** 
 1451              		.loc 1 274 25 is_stmt 1 view .LVU380
 1452 0184 82E7     		b	.L64
 1453              	.LVL130:
 1454              	.L69:
 277:Core/Src/NOS_WS2812B_Strip.c ****                         curr.B = number;
 1455              		.loc 1 277 25 view .LVU381
 277:Core/Src/NOS_WS2812B_Strip.c ****                         curr.B = number;
 1456              		.loc 1 277 32 is_stmt 0 view .LVU382
 1457 0186 FFF7FEFF 		bl	NOS_GetBaseColor
 1458              	.LVL131:
ARM GAS  C:\Users\igorn\AppData\Local\Temp\cco5MKdE.s 			page 34


 277:Core/Src/NOS_WS2812B_Strip.c ****                         curr.B = number;
 1459              		.loc 1 277 32 view .LVU383
 1460 018a 8DF80400 		strb	r0, [sp, #4]
 1461 018e C0F30723 		ubfx	r3, r0, #8, #8
 1462 0192 8DF80530 		strb	r3, [sp, #5]
 1463 0196 C0F30740 		ubfx	r0, r0, #16, #8
 1464 019a 8DF80600 		strb	r0, [sp, #6]
 278:Core/Src/NOS_WS2812B_Strip.c ****                         break;
 1465              		.loc 1 278 25 is_stmt 1 view .LVU384
 278:Core/Src/NOS_WS2812B_Strip.c ****                         break;
 1466              		.loc 1 278 32 is_stmt 0 view .LVU385
 1467 019e 8DF80660 		strb	r6, [sp, #6]
 279:Core/Src/NOS_WS2812B_Strip.c **** 
 1468              		.loc 1 279 25 is_stmt 1 view .LVU386
 1469 01a2 73E7     		b	.L64
 1470              	.LVL132:
 1471              	.L68:
 282:Core/Src/NOS_WS2812B_Strip.c ****                         curr.B = 0x7F + number;
 1472              		.loc 1 282 25 view .LVU387
 282:Core/Src/NOS_WS2812B_Strip.c ****                         curr.B = 0x7F + number;
 1473              		.loc 1 282 32 is_stmt 0 view .LVU388
 1474 01a4 FFF7FEFF 		bl	NOS_GetBaseColor
 1475              	.LVL133:
 282:Core/Src/NOS_WS2812B_Strip.c ****                         curr.B = 0x7F + number;
 1476              		.loc 1 282 32 view .LVU389
 1477 01a8 8DF80400 		strb	r0, [sp, #4]
 1478 01ac C0F30723 		ubfx	r3, r0, #8, #8
 1479 01b0 8DF80530 		strb	r3, [sp, #5]
 1480 01b4 C0F30740 		ubfx	r0, r0, #16, #8
 1481 01b8 8DF80600 		strb	r0, [sp, #6]
 283:Core/Src/NOS_WS2812B_Strip.c ****                         break;
 1482              		.loc 1 283 25 is_stmt 1 view .LVU390
 283:Core/Src/NOS_WS2812B_Strip.c ****                         break;
 1483              		.loc 1 283 39 is_stmt 0 view .LVU391
 1484 01bc 06F17F03 		add	r3, r6, #127
 283:Core/Src/NOS_WS2812B_Strip.c ****                         break;
 1485              		.loc 1 283 32 view .LVU392
 1486 01c0 8DF80630 		strb	r3, [sp, #6]
 284:Core/Src/NOS_WS2812B_Strip.c **** 
 1487              		.loc 1 284 25 is_stmt 1 view .LVU393
 1488 01c4 62E7     		b	.L64
 1489              	.LVL134:
 1490              	.L67:
 287:Core/Src/NOS_WS2812B_Strip.c ****                         curr.R = 0xFF - number;
 1491              		.loc 1 287 25 view .LVU394
 287:Core/Src/NOS_WS2812B_Strip.c ****                         curr.R = 0xFF - number;
 1492              		.loc 1 287 32 is_stmt 0 view .LVU395
 1493 01c6 FFF7FEFF 		bl	NOS_GetBaseColor
 1494              	.LVL135:
 287:Core/Src/NOS_WS2812B_Strip.c ****                         curr.R = 0xFF - number;
 1495              		.loc 1 287 32 view .LVU396
 1496 01ca 8DF80400 		strb	r0, [sp, #4]
 1497 01ce C0F30723 		ubfx	r3, r0, #8, #8
 1498 01d2 8DF80530 		strb	r3, [sp, #5]
 1499 01d6 C0F30740 		ubfx	r0, r0, #16, #8
 1500 01da 8DF80600 		strb	r0, [sp, #6]
 288:Core/Src/NOS_WS2812B_Strip.c ****                         break;
ARM GAS  C:\Users\igorn\AppData\Local\Temp\cco5MKdE.s 			page 35


 1501              		.loc 1 288 25 is_stmt 1 view .LVU397
 288:Core/Src/NOS_WS2812B_Strip.c ****                         break;
 1502              		.loc 1 288 39 is_stmt 0 view .LVU398
 1503 01de F343     		mvns	r3, r6
 288:Core/Src/NOS_WS2812B_Strip.c ****                         break;
 1504              		.loc 1 288 32 view .LVU399
 1505 01e0 8DF80430 		strb	r3, [sp, #4]
 289:Core/Src/NOS_WS2812B_Strip.c **** 
 1506              		.loc 1 289 25 is_stmt 1 view .LVU400
 1507 01e4 52E7     		b	.L64
 1508              	.LVL136:
 1509              	.L65:
 292:Core/Src/NOS_WS2812B_Strip.c ****                         curr.R = 0x7F - number;
 1510              		.loc 1 292 25 view .LVU401
 292:Core/Src/NOS_WS2812B_Strip.c ****                         curr.R = 0x7F - number;
 1511              		.loc 1 292 32 is_stmt 0 view .LVU402
 1512 01e6 FFF7FEFF 		bl	NOS_GetBaseColor
 1513              	.LVL137:
 292:Core/Src/NOS_WS2812B_Strip.c ****                         curr.R = 0x7F - number;
 1514              		.loc 1 292 32 view .LVU403
 1515 01ea 8DF80400 		strb	r0, [sp, #4]
 1516 01ee C0F30723 		ubfx	r3, r0, #8, #8
 1517 01f2 8DF80530 		strb	r3, [sp, #5]
 1518 01f6 C0F30740 		ubfx	r0, r0, #16, #8
 1519 01fa 8DF80600 		strb	r0, [sp, #6]
 293:Core/Src/NOS_WS2812B_Strip.c ****                         break;
 1520              		.loc 1 293 25 is_stmt 1 view .LVU404
 293:Core/Src/NOS_WS2812B_Strip.c ****                         break;
 1521              		.loc 1 293 39 is_stmt 0 view .LVU405
 1522 01fe C6F17F03 		rsb	r3, r6, #127
 293:Core/Src/NOS_WS2812B_Strip.c ****                         break;
 1523              		.loc 1 293 32 view .LVU406
 1524 0202 8DF80430 		strb	r3, [sp, #4]
 294:Core/Src/NOS_WS2812B_Strip.c **** 
 1525              		.loc 1 294 25 is_stmt 1 view .LVU407
 1526 0206 41E7     		b	.L64
 1527              	.LVL138:
 1528              	.L80:
 1529              		.cfi_def_cfa_offset 0
 1530              		.cfi_restore 4
 1531              		.cfi_restore 5
 1532              		.cfi_restore 6
 1533              		.cfi_restore 14
 294:Core/Src/NOS_WS2812B_Strip.c **** 
 1534              		.loc 1 294 25 is_stmt 0 view .LVU408
 1535 0208 7047     		bx	lr
 1536              	.L85:
 1537 020a 00BF     		.align	2
 1538              	.L84:
 1539 020c 11080402 		.word	33818641
 1540              	.LBE6:
 1541              		.cfi_endproc
 1542              	.LFE83:
 1544              		.section	.text.NOS_WS2812B_Strip_Effects_Handler,"ax",%progbits
 1545              		.align	1
 1546              		.global	NOS_WS2812B_Strip_Effects_Handler
 1547              		.syntax unified
ARM GAS  C:\Users\igorn\AppData\Local\Temp\cco5MKdE.s 			page 36


 1548              		.thumb
 1549              		.thumb_func
 1551              	NOS_WS2812B_Strip_Effects_Handler:
 1552              	.LVL139:
 1553              	.LFB78:
 142:Core/Src/NOS_WS2812B_Strip.c ****     for(int i = 0; i < strip->effectsCounter; i++)
 1554              		.loc 1 142 1 is_stmt 1 view -0
 1555              		.cfi_startproc
 1556              		@ args = 0, pretend = 0, frame = 0
 1557              		@ frame_needed = 0, uses_anonymous_args = 0
 142:Core/Src/NOS_WS2812B_Strip.c ****     for(int i = 0; i < strip->effectsCounter; i++)
 1558              		.loc 1 142 1 is_stmt 0 view .LVU410
 1559 0000 38B5     		push	{r3, r4, r5, lr}
 1560              		.cfi_def_cfa_offset 16
 1561              		.cfi_offset 3, -16
 1562              		.cfi_offset 4, -12
 1563              		.cfi_offset 5, -8
 1564              		.cfi_offset 14, -4
 1565 0002 0546     		mov	r5, r0
 143:Core/Src/NOS_WS2812B_Strip.c ****     {
 1566              		.loc 1 143 5 is_stmt 1 view .LVU411
 1567              	.LBB7:
 143:Core/Src/NOS_WS2812B_Strip.c ****     {
 1568              		.loc 1 143 9 view .LVU412
 1569              	.LVL140:
 143:Core/Src/NOS_WS2812B_Strip.c ****     {
 1570              		.loc 1 143 13 is_stmt 0 view .LVU413
 1571 0004 0024     		movs	r4, #0
 143:Core/Src/NOS_WS2812B_Strip.c ****     {
 1572              		.loc 1 143 5 view .LVU414
 1573 0006 06E0     		b	.L87
 1574              	.LVL141:
 1575              	.L88:
 148:Core/Src/NOS_WS2812B_Strip.c ****                 break;
 1576              		.loc 1 148 17 is_stmt 1 view .LVU415
 1577 0008 6101     		lsls	r1, r4, #5
 1578 000a 1031     		adds	r1, r1, #16
 1579 000c 2944     		add	r1, r1, r5
 1580 000e 2846     		mov	r0, r5
 1581 0010 FFF7FEFF 		bl	NOS_WS2812B_Strip_Effect_Breathe_Handler
 1582              	.LVL142:
 149:Core/Src/NOS_WS2812B_Strip.c ****             case 0x21:
 1583              		.loc 1 149 17 view .LVU416
 1584              	.L90:
 143:Core/Src/NOS_WS2812B_Strip.c ****     {
 1585              		.loc 1 143 48 discriminator 2 view .LVU417
 1586 0014 0134     		adds	r4, r4, #1
 1587              	.LVL143:
 1588              	.L87:
 143:Core/Src/NOS_WS2812B_Strip.c ****     {
 1589              		.loc 1 143 22 discriminator 1 view .LVU418
 143:Core/Src/NOS_WS2812B_Strip.c ****     {
 1590              		.loc 1 143 29 is_stmt 0 discriminator 1 view .LVU419
 1591 0016 95F85031 		ldrb	r3, [r5, #336]	@ zero_extendqisi2
 143:Core/Src/NOS_WS2812B_Strip.c ****     {
 1592              		.loc 1 143 22 discriminator 1 view .LVU420
 1593 001a A342     		cmp	r3, r4
ARM GAS  C:\Users\igorn\AppData\Local\Temp\cco5MKdE.s 			page 37


 1594 001c 0EDD     		ble	.L93
 145:Core/Src/NOS_WS2812B_Strip.c ****         {
 1595              		.loc 1 145 9 is_stmt 1 view .LVU421
 145:Core/Src/NOS_WS2812B_Strip.c ****         {
 1596              		.loc 1 145 33 is_stmt 0 view .LVU422
 1597 001e 05EB4413 		add	r3, r5, r4, lsl #5
 1598 0022 93F82F30 		ldrb	r3, [r3, #47]	@ zero_extendqisi2
 145:Core/Src/NOS_WS2812B_Strip.c ****         {
 1599              		.loc 1 145 9 view .LVU423
 1600 0026 202B     		cmp	r3, #32
 1601 0028 EED0     		beq	.L88
 1602 002a 212B     		cmp	r3, #33
 1603 002c F2D1     		bne	.L90
 151:Core/Src/NOS_WS2812B_Strip.c ****                 break;
 1604              		.loc 1 151 17 is_stmt 1 view .LVU424
 1605 002e 6101     		lsls	r1, r4, #5
 1606 0030 1031     		adds	r1, r1, #16
 1607 0032 2944     		add	r1, r1, r5
 1608 0034 2846     		mov	r0, r5
 1609 0036 FFF7FEFF 		bl	NOS_WS2812B_Strip_Effect_Rainbow_Handler
 1610              	.LVL144:
 152:Core/Src/NOS_WS2812B_Strip.c ****         }
 1611              		.loc 1 152 17 view .LVU425
 1612 003a EBE7     		b	.L90
 1613              	.L93:
 1614              	.LBE7:
 155:Core/Src/NOS_WS2812B_Strip.c **** 
 1615              		.loc 1 155 1 is_stmt 0 view .LVU426
 1616 003c 38BD     		pop	{r3, r4, r5, pc}
 155:Core/Src/NOS_WS2812B_Strip.c **** 
 1617              		.loc 1 155 1 view .LVU427
 1618              		.cfi_endproc
 1619              	.LFE78:
 1621              		.text
 1622              	.Letext0:
 1623              		.file 2 "c:\\users\\igorn\\appdata\\roaming\\code\\user\\globalstorage\\bmd.stm32-for-vscode\\@xpa
 1624              		.file 3 "c:\\users\\igorn\\appdata\\roaming\\code\\user\\globalstorage\\bmd.stm32-for-vscode\\@xpa
 1625              		.file 4 "Core/Inc/NOS_Typedefs.h"
 1626              		.file 5 "Core/Inc/NOS_BaseColors.h"
 1627              		.file 6 "Core/Inc/NOS_Math.h"
ARM GAS  C:\Users\igorn\AppData\Local\Temp\cco5MKdE.s 			page 38


DEFINED SYMBOLS
                            *ABS*:00000000 NOS_WS2812B_Strip.c
C:\Users\igorn\AppData\Local\Temp\cco5MKdE.s:19     .text.NOS_WS2812B_Strip_FullInit:00000000 $t
C:\Users\igorn\AppData\Local\Temp\cco5MKdE.s:25     .text.NOS_WS2812B_Strip_FullInit:00000000 NOS_WS2812B_Strip_FullInit
C:\Users\igorn\AppData\Local\Temp\cco5MKdE.s:58     .text.NOS_WS2812B_Strip_CoreSetPixel:00000000 $t
C:\Users\igorn\AppData\Local\Temp\cco5MKdE.s:64     .text.NOS_WS2812B_Strip_CoreSetPixel:00000000 NOS_WS2812B_Strip_CoreSetPixel
C:\Users\igorn\AppData\Local\Temp\cco5MKdE.s:123    .text.NOS_WS2812B_Strip_SetPixel:00000000 $t
C:\Users\igorn\AppData\Local\Temp\cco5MKdE.s:129    .text.NOS_WS2812B_Strip_SetPixel:00000000 NOS_WS2812B_Strip_SetPixel
C:\Users\igorn\AppData\Local\Temp\cco5MKdE.s:188    .text.NOS_WS2812B_Strip_Clear:00000000 $t
C:\Users\igorn\AppData\Local\Temp\cco5MKdE.s:194    .text.NOS_WS2812B_Strip_Clear:00000000 NOS_WS2812B_Strip_Clear
C:\Users\igorn\AppData\Local\Temp\cco5MKdE.s:254    .text.NOS_WS2812B_Strip_Update:00000000 $t
C:\Users\igorn\AppData\Local\Temp\cco5MKdE.s:260    .text.NOS_WS2812B_Strip_Update:00000000 NOS_WS2812B_Strip_Update
C:\Users\igorn\AppData\Local\Temp\cco5MKdE.s:383    .text.NOS_WS2812B_Strip_Update:0000007c $d
C:\Users\igorn\AppData\Local\Temp\cco5MKdE.s:388    .text.NOS_WS2812B_Strip_ColorFill:00000000 $t
C:\Users\igorn\AppData\Local\Temp\cco5MKdE.s:394    .text.NOS_WS2812B_Strip_ColorFill:00000000 NOS_WS2812B_Strip_ColorFill
C:\Users\igorn\AppData\Local\Temp\cco5MKdE.s:451    .text.NOS_WS2812B_Strip_SetPixelByRGB:00000000 $t
C:\Users\igorn\AppData\Local\Temp\cco5MKdE.s:457    .text.NOS_WS2812B_Strip_SetPixelByRGB:00000000 NOS_WS2812B_Strip_SetPixelByRGB
C:\Users\igorn\AppData\Local\Temp\cco5MKdE.s:496    .text.NOS_WS2812B_Strip_SetPixelByPixelColor:00000000 $t
C:\Users\igorn\AppData\Local\Temp\cco5MKdE.s:502    .text.NOS_WS2812B_Strip_SetPixelByPixelColor:00000000 NOS_WS2812B_Strip_SetPixelByPixelColor
C:\Users\igorn\AppData\Local\Temp\cco5MKdE.s:532    .text.NOS_WS2812B_Strip_TestFill:00000000 $t
C:\Users\igorn\AppData\Local\Temp\cco5MKdE.s:538    .text.NOS_WS2812B_Strip_TestFill:00000000 NOS_WS2812B_Strip_TestFill
C:\Users\igorn\AppData\Local\Temp\cco5MKdE.s:617    .text.NOS_WS2812B_Strip_SetBright:00000000 $t
C:\Users\igorn\AppData\Local\Temp\cco5MKdE.s:623    .text.NOS_WS2812B_Strip_SetBright:00000000 NOS_WS2812B_Strip_SetBright
C:\Users\igorn\AppData\Local\Temp\cco5MKdE.s:640    .text.NOS_WS2812B_Strip_Effect_Breathe_Init:00000000 $t
C:\Users\igorn\AppData\Local\Temp\cco5MKdE.s:646    .text.NOS_WS2812B_Strip_Effect_Breathe_Init:00000000 NOS_WS2812B_Strip_Effect_Breathe_Init
C:\Users\igorn\AppData\Local\Temp\cco5MKdE.s:706    .text.NOS_WS2812B_Strip_Effect_Breathe_Copy:00000000 $t
C:\Users\igorn\AppData\Local\Temp\cco5MKdE.s:712    .text.NOS_WS2812B_Strip_Effect_Breathe_Copy:00000000 NOS_WS2812B_Strip_Effect_Breathe_Copy
C:\Users\igorn\AppData\Local\Temp\cco5MKdE.s:771    .text.NOS_WS2812B_Strip_Effect_Breathe_Handler:00000000 $t
C:\Users\igorn\AppData\Local\Temp\cco5MKdE.s:777    .text.NOS_WS2812B_Strip_Effect_Breathe_Handler:00000000 NOS_WS2812B_Strip_Effect_Breathe_Handler
C:\Users\igorn\AppData\Local\Temp\cco5MKdE.s:858    .text.NOS_WS2812B_Strip_Effect_Rainbow_Init:00000000 $t
C:\Users\igorn\AppData\Local\Temp\cco5MKdE.s:864    .text.NOS_WS2812B_Strip_Effect_Rainbow_Init:00000000 NOS_WS2812B_Strip_Effect_Rainbow_Init
C:\Users\igorn\AppData\Local\Temp\cco5MKdE.s:924    .text.NOS_WS2812B_Strip_Effects_AddEffect:00000000 $t
C:\Users\igorn\AppData\Local\Temp\cco5MKdE.s:930    .text.NOS_WS2812B_Strip_Effects_AddEffect:00000000 NOS_WS2812B_Strip_Effects_AddEffect
C:\Users\igorn\AppData\Local\Temp\cco5MKdE.s:1021   .text.NOS_WS2812B_Strip_Effects_UpdateEffect:00000000 $t
C:\Users\igorn\AppData\Local\Temp\cco5MKdE.s:1027   .text.NOS_WS2812B_Strip_Effects_UpdateEffect:00000000 NOS_WS2812B_Strip_Effects_UpdateEffect
C:\Users\igorn\AppData\Local\Temp\cco5MKdE.s:1110   .text.NOS_WS2812B_Strip_Effect_Rainbow_Copy:00000000 $t
C:\Users\igorn\AppData\Local\Temp\cco5MKdE.s:1116   .text.NOS_WS2812B_Strip_Effect_Rainbow_Copy:00000000 NOS_WS2812B_Strip_Effect_Rainbow_Copy
C:\Users\igorn\AppData\Local\Temp\cco5MKdE.s:1175   .text.NOS_WS2812B_Strip_Effect_Rainbow_Handler:00000000 $t
C:\Users\igorn\AppData\Local\Temp\cco5MKdE.s:1181   .text.NOS_WS2812B_Strip_Effect_Rainbow_Handler:00000000 NOS_WS2812B_Strip_Effect_Rainbow_Handler
C:\Users\igorn\AppData\Local\Temp\cco5MKdE.s:1279   .text.NOS_WS2812B_Strip_Effect_Rainbow_Handler:00000064 $d
C:\Users\igorn\AppData\Local\Temp\cco5MKdE.s:1291   .text.NOS_WS2812B_Strip_Effect_Rainbow_Handler:00000070 $t
C:\Users\igorn\AppData\Local\Temp\cco5MKdE.s:1539   .text.NOS_WS2812B_Strip_Effect_Rainbow_Handler:0000020c $d
C:\Users\igorn\AppData\Local\Temp\cco5MKdE.s:1545   .text.NOS_WS2812B_Strip_Effects_Handler:00000000 $t
C:\Users\igorn\AppData\Local\Temp\cco5MKdE.s:1551   .text.NOS_WS2812B_Strip_Effects_Handler:00000000 NOS_WS2812B_Strip_Effects_Handler

UNDEFINED SYMBOLS
__aeabi_i2f
__aeabi_fdiv
__aeabi_ui2f
__aeabi_fmul
__aeabi_f2uiz
NOS_GetBaseColor
NOS_Math_SinValue_Init
NOS_Math_SinValue_Handler
NOS_Math_GetSinValue
