ARM GAS  C:\Users\igorn\AppData\Local\Temp\ccbydyEo.s 			page 1


   1              		.cpu cortex-m3
   2              		.arch armv7-m
   3              		.fpu softvfp
   4              		.eabi_attribute 20, 1
   5              		.eabi_attribute 21, 1
   6              		.eabi_attribute 23, 3
   7              		.eabi_attribute 24, 1
   8              		.eabi_attribute 25, 1
   9              		.eabi_attribute 26, 1
  10              		.eabi_attribute 30, 1
  11              		.eabi_attribute 34, 1
  12              		.eabi_attribute 18, 4
  13              		.file	"NOS_WS2812B_Strip.c"
  14              		.text
  15              	.Ltext0:
  16              		.cfi_sections	.debug_frame
  17              		.file 1 "Core/Src/NOS_WS2812B_Strip.c"
  18              		.section	.text.NOS_WS2812B_Strip_FullInit,"ax",%progbits
  19              		.align	1
  20              		.global	NOS_WS2812B_Strip_FullInit
  21              		.syntax unified
  22              		.thumb
  23              		.thumb_func
  25              	NOS_WS2812B_Strip_FullInit:
  26              	.LVL0:
  27              	.LFB65:
   1:Core/Src/NOS_WS2812B_Strip.c **** #include "NOS_WS2812B_Strip.h"
   2:Core/Src/NOS_WS2812B_Strip.c **** #include "NOS_BaseColors.h"
   3:Core/Src/NOS_WS2812B_Strip.c **** #include "WS2812B_Effects.h"
   4:Core/Src/NOS_WS2812B_Strip.c **** 
   5:Core/Src/NOS_WS2812B_Strip.c **** void NOS_WS2812B_Strip_FullInit(WS2812B_Strip* strip,uint8_t* buff,PixelColor* pixels,int lenght)
   6:Core/Src/NOS_WS2812B_Strip.c **** {
  28              		.loc 1 6 1 view -0
  29              		.cfi_startproc
  30              		@ args = 0, pretend = 0, frame = 0
  31              		@ frame_needed = 0, uses_anonymous_args = 0
  32              		@ link register save eliminated.
   7:Core/Src/NOS_WS2812B_Strip.c ****     strip->pixels = pixels;
  33              		.loc 1 7 5 view .LVU1
  34              		.loc 1 7 19 is_stmt 0 view .LVU2
  35 0000 4260     		str	r2, [r0, #4]
   8:Core/Src/NOS_WS2812B_Strip.c ****     strip->frameBuffer = buff;
  36              		.loc 1 8 5 is_stmt 1 view .LVU3
  37              		.loc 1 8 24 is_stmt 0 view .LVU4
  38 0002 0160     		str	r1, [r0]
   9:Core/Src/NOS_WS2812B_Strip.c ****     strip->pixelCount = lenght;
  39              		.loc 1 9 5 is_stmt 1 view .LVU5
  40              		.loc 1 9 23 is_stmt 0 view .LVU6
  41 0004 8360     		str	r3, [r0, #8]
  10:Core/Src/NOS_WS2812B_Strip.c ****     strip->bright = 100;
  42              		.loc 1 10 5 is_stmt 1 view .LVU7
  43              		.loc 1 10 19 is_stmt 0 view .LVU8
  44 0006 6423     		movs	r3, #100
  45              	.LVL1:
  46              		.loc 1 10 19 view .LVU9
  47 0008 C360     		str	r3, [r0, #12]
  11:Core/Src/NOS_WS2812B_Strip.c ****     strip->effectsCounter = 0;
ARM GAS  C:\Users\igorn\AppData\Local\Temp\ccbydyEo.s 			page 2


  48              		.loc 1 11 5 is_stmt 1 view .LVU10
  49              		.loc 1 11 27 is_stmt 0 view .LVU11
  50 000a 0023     		movs	r3, #0
  51 000c 80F85031 		strb	r3, [r0, #336]
  12:Core/Src/NOS_WS2812B_Strip.c **** }
  52              		.loc 1 12 1 view .LVU12
  53 0010 7047     		bx	lr
  54              		.cfi_endproc
  55              	.LFE65:
  57              		.section	.text.NOS_WS2812B_Strip_CoreSetPixel,"ax",%progbits
  58              		.align	1
  59              		.global	NOS_WS2812B_Strip_CoreSetPixel
  60              		.syntax unified
  61              		.thumb
  62              		.thumb_func
  64              	NOS_WS2812B_Strip_CoreSetPixel:
  65              	.LVL2:
  66              	.LFB66:
  13:Core/Src/NOS_WS2812B_Strip.c **** 
  14:Core/Src/NOS_WS2812B_Strip.c **** void NOS_WS2812B_Strip_CoreSetPixel(WS2812B_Strip* strip,int pixelPos,uint8_t r, uint8_t g, uint8_t
  15:Core/Src/NOS_WS2812B_Strip.c **** {
  67              		.loc 1 15 1 is_stmt 1 view -0
  68              		.cfi_startproc
  69              		@ args = 4, pretend = 0, frame = 0
  70              		@ frame_needed = 0, uses_anonymous_args = 0
  71              		@ link register save eliminated.
  72              		.loc 1 15 1 is_stmt 0 view .LVU14
  73 0000 10B4     		push	{r4}
  74              		.cfi_def_cfa_offset 4
  75              		.cfi_offset 4, -4
  16:Core/Src/NOS_WS2812B_Strip.c ****     if(strip->frameBuffer != NULL && pixelPos <= strip->pixelCount)
  76              		.loc 1 16 5 is_stmt 1 view .LVU15
  77              		.loc 1 16 13 is_stmt 0 view .LVU16
  78 0002 0468     		ldr	r4, [r0]
  79              		.loc 1 16 7 view .LVU17
  80 0004 74B1     		cbz	r4, .L2
  81              		.loc 1 16 35 discriminator 1 view .LVU18
  82 0006 D0F808C0 		ldr	ip, [r0, #8]
  83 000a 8C45     		cmp	ip, r1
  84 000c 0ADB     		blt	.L2
  17:Core/Src/NOS_WS2812B_Strip.c ****     {
  18:Core/Src/NOS_WS2812B_Strip.c ****         strip->frameBuffer[pixelPos * 3] = r;
  85              		.loc 1 18 9 is_stmt 1 view .LVU19
  86              		.loc 1 18 37 is_stmt 0 view .LVU20
  87 000e 01EB4101 		add	r1, r1, r1, lsl #1
  88              	.LVL3:
  89              		.loc 1 18 42 view .LVU21
  90 0012 6254     		strb	r2, [r4, r1]
  19:Core/Src/NOS_WS2812B_Strip.c ****         strip->frameBuffer[pixelPos * 3 + 1] = g;
  91              		.loc 1 19 9 is_stmt 1 view .LVU22
  92              		.loc 1 19 14 is_stmt 0 view .LVU23
  93 0014 0468     		ldr	r4, [r0]
  94              		.loc 1 19 27 view .LVU24
  95 0016 4A1C     		adds	r2, r1, #1
  96              	.LVL4:
  97              		.loc 1 19 46 view .LVU25
  98 0018 A354     		strb	r3, [r4, r2]
ARM GAS  C:\Users\igorn\AppData\Local\Temp\ccbydyEo.s 			page 3


  20:Core/Src/NOS_WS2812B_Strip.c ****         strip->frameBuffer[pixelPos * 3 + 2] = b;
  99              		.loc 1 20 9 is_stmt 1 view .LVU26
 100              		.loc 1 20 14 is_stmt 0 view .LVU27
 101 001a 0368     		ldr	r3, [r0]
 102              	.LVL5:
 103              		.loc 1 20 27 view .LVU28
 104 001c 0231     		adds	r1, r1, #2
 105              		.loc 1 20 46 view .LVU29
 106 001e 9DF80420 		ldrb	r2, [sp, #4]	@ zero_extendqisi2
 107              	.LVL6:
 108              		.loc 1 20 46 view .LVU30
 109 0022 5A54     		strb	r2, [r3, r1]
 110              	.LVL7:
 111              	.L2:
  21:Core/Src/NOS_WS2812B_Strip.c ****     }
  22:Core/Src/NOS_WS2812B_Strip.c **** }
 112              		.loc 1 22 1 view .LVU31
 113 0024 10BC     		pop	{r4}
 114              		.cfi_restore 4
 115              		.cfi_def_cfa_offset 0
 116              	.LVL8:
 117              		.loc 1 22 1 view .LVU32
 118 0026 7047     		bx	lr
 119              		.cfi_endproc
 120              	.LFE66:
 122              		.section	.text.NOS_WS2812B_Strip_SetPixel,"ax",%progbits
 123              		.align	1
 124              		.global	NOS_WS2812B_Strip_SetPixel
 125              		.syntax unified
 126              		.thumb
 127              		.thumb_func
 129              	NOS_WS2812B_Strip_SetPixel:
 130              	.LVL9:
 131              	.LFB67:
  23:Core/Src/NOS_WS2812B_Strip.c **** 
  24:Core/Src/NOS_WS2812B_Strip.c **** void NOS_WS2812B_Strip_SetPixel(WS2812B_Strip* strip,int pixelPos,uint8_t r, uint8_t g, uint8_t b)
  25:Core/Src/NOS_WS2812B_Strip.c **** {
 132              		.loc 1 25 1 is_stmt 1 view -0
 133              		.cfi_startproc
 134              		@ args = 4, pretend = 0, frame = 0
 135              		@ frame_needed = 0, uses_anonymous_args = 0
 136              		@ link register save eliminated.
 137              		.loc 1 25 1 is_stmt 0 view .LVU34
 138 0000 10B4     		push	{r4}
 139              		.cfi_def_cfa_offset 4
 140              		.cfi_offset 4, -4
  26:Core/Src/NOS_WS2812B_Strip.c ****     if(strip->pixels != NULL && pixelPos <= strip->pixelCount)
 141              		.loc 1 26 5 is_stmt 1 view .LVU35
 142              		.loc 1 26 13 is_stmt 0 view .LVU36
 143 0002 4468     		ldr	r4, [r0, #4]
 144              		.loc 1 26 7 view .LVU37
 145 0004 74B1     		cbz	r4, .L5
 146              		.loc 1 26 30 discriminator 1 view .LVU38
 147 0006 D0F808C0 		ldr	ip, [r0, #8]
 148 000a 8C45     		cmp	ip, r1
 149 000c 0ADB     		blt	.L5
  27:Core/Src/NOS_WS2812B_Strip.c ****     {
ARM GAS  C:\Users\igorn\AppData\Local\Temp\ccbydyEo.s 			page 4


  28:Core/Src/NOS_WS2812B_Strip.c ****         strip->pixels[pixelPos].R = r;
 150              		.loc 1 28 9 is_stmt 1 view .LVU39
 151              		.loc 1 28 22 is_stmt 0 view .LVU40
 152 000e 01EB4101 		add	r1, r1, r1, lsl #1
 153              	.LVL10:
 154              		.loc 1 28 35 view .LVU41
 155 0012 6254     		strb	r2, [r4, r1]
  29:Core/Src/NOS_WS2812B_Strip.c ****         strip->pixels[pixelPos].G = g;
 156              		.loc 1 29 9 is_stmt 1 view .LVU42
 157              		.loc 1 29 14 is_stmt 0 view .LVU43
 158 0014 4268     		ldr	r2, [r0, #4]
 159              	.LVL11:
 160              		.loc 1 29 22 view .LVU44
 161 0016 0A44     		add	r2, r2, r1
 162              		.loc 1 29 35 view .LVU45
 163 0018 5370     		strb	r3, [r2, #1]
 164              	.LVL12:
  30:Core/Src/NOS_WS2812B_Strip.c ****         strip->pixels[pixelPos].B = b;
 165              		.loc 1 30 9 is_stmt 1 view .LVU46
 166              		.loc 1 30 14 is_stmt 0 view .LVU47
 167 001a 4368     		ldr	r3, [r0, #4]
 168              	.LVL13:
 169              		.loc 1 30 22 view .LVU48
 170 001c 0B44     		add	r3, r3, r1
 171              		.loc 1 30 35 view .LVU49
 172 001e 9DF80420 		ldrb	r2, [sp, #4]	@ zero_extendqisi2
 173              	.LVL14:
 174              		.loc 1 30 35 view .LVU50
 175 0022 9A70     		strb	r2, [r3, #2]
 176              	.L5:
  31:Core/Src/NOS_WS2812B_Strip.c ****     }         
  32:Core/Src/NOS_WS2812B_Strip.c **** }
 177              		.loc 1 32 1 view .LVU51
 178 0024 10BC     		pop	{r4}
 179              		.cfi_restore 4
 180              		.cfi_def_cfa_offset 0
 181              	.LVL15:
 182              		.loc 1 32 1 view .LVU52
 183 0026 7047     		bx	lr
 184              		.cfi_endproc
 185              	.LFE67:
 187              		.section	.text.NOS_WS2812B_Strip_Clear,"ax",%progbits
 188              		.align	1
 189              		.global	NOS_WS2812B_Strip_Clear
 190              		.syntax unified
 191              		.thumb
 192              		.thumb_func
 194              	NOS_WS2812B_Strip_Clear:
 195              	.LVL16:
 196              	.LFB68:
  33:Core/Src/NOS_WS2812B_Strip.c **** 
  34:Core/Src/NOS_WS2812B_Strip.c **** void NOS_WS2812B_Strip_Clear(WS2812B_Strip* strip)
  35:Core/Src/NOS_WS2812B_Strip.c **** {
 197              		.loc 1 35 1 is_stmt 1 view -0
 198              		.cfi_startproc
 199              		@ args = 0, pretend = 0, frame = 0
 200              		@ frame_needed = 0, uses_anonymous_args = 0
ARM GAS  C:\Users\igorn\AppData\Local\Temp\ccbydyEo.s 			page 5


 201              		.loc 1 35 1 is_stmt 0 view .LVU54
 202 0000 30B5     		push	{r4, r5, lr}
 203              		.cfi_def_cfa_offset 12
 204              		.cfi_offset 4, -12
 205              		.cfi_offset 5, -8
 206              		.cfi_offset 14, -4
 207 0002 83B0     		sub	sp, sp, #12
 208              		.cfi_def_cfa_offset 24
 209 0004 0546     		mov	r5, r0
  36:Core/Src/NOS_WS2812B_Strip.c ****     for(int i = 0; i < strip->pixelCount; i++)
 210              		.loc 1 36 5 is_stmt 1 view .LVU55
 211              	.LBB2:
 212              		.loc 1 36 9 view .LVU56
 213              	.LVL17:
 214              		.loc 1 36 13 is_stmt 0 view .LVU57
 215 0006 0024     		movs	r4, #0
 216              		.loc 1 36 5 view .LVU58
 217 0008 07E0     		b	.L9
 218              	.LVL18:
 219              	.L10:
  37:Core/Src/NOS_WS2812B_Strip.c ****     {
  38:Core/Src/NOS_WS2812B_Strip.c ****         NOS_WS2812B_Strip_SetPixel(strip,i,0,0,0);
 220              		.loc 1 38 9 is_stmt 1 discriminator 3 view .LVU59
 221 000a 0022     		movs	r2, #0
 222 000c 0092     		str	r2, [sp]
 223 000e 1346     		mov	r3, r2
 224 0010 2146     		mov	r1, r4
 225 0012 2846     		mov	r0, r5
 226 0014 FFF7FEFF 		bl	NOS_WS2812B_Strip_SetPixel
 227              	.LVL19:
  36:Core/Src/NOS_WS2812B_Strip.c ****     for(int i = 0; i < strip->pixelCount; i++)
 228              		.loc 1 36 44 discriminator 3 view .LVU60
 229 0018 0134     		adds	r4, r4, #1
 230              	.LVL20:
 231              	.L9:
  36:Core/Src/NOS_WS2812B_Strip.c ****     for(int i = 0; i < strip->pixelCount; i++)
 232              		.loc 1 36 22 discriminator 1 view .LVU61
  36:Core/Src/NOS_WS2812B_Strip.c ****     for(int i = 0; i < strip->pixelCount; i++)
 233              		.loc 1 36 29 is_stmt 0 discriminator 1 view .LVU62
 234 001a AB68     		ldr	r3, [r5, #8]
  36:Core/Src/NOS_WS2812B_Strip.c ****     for(int i = 0; i < strip->pixelCount; i++)
 235              		.loc 1 36 22 discriminator 1 view .LVU63
 236 001c A342     		cmp	r3, r4
 237 001e F4DC     		bgt	.L10
 238              	.LBE2:
  39:Core/Src/NOS_WS2812B_Strip.c ****     }
  40:Core/Src/NOS_WS2812B_Strip.c **** }
 239              		.loc 1 40 1 view .LVU64
 240 0020 03B0     		add	sp, sp, #12
 241              		.cfi_def_cfa_offset 12
 242              		@ sp needed
 243 0022 30BD     		pop	{r4, r5, pc}
 244              		.loc 1 40 1 view .LVU65
 245              		.cfi_endproc
 246              	.LFE68:
 248              		.global	__aeabi_i2f
 249              		.global	__aeabi_fdiv
ARM GAS  C:\Users\igorn\AppData\Local\Temp\ccbydyEo.s 			page 6


 250              		.global	__aeabi_ui2f
 251              		.global	__aeabi_fmul
 252              		.global	__aeabi_f2uiz
 253              		.section	.text.NOS_WS2812B_Strip_Update,"ax",%progbits
 254              		.align	1
 255              		.global	NOS_WS2812B_Strip_Update
 256              		.syntax unified
 257              		.thumb
 258              		.thumb_func
 260              	NOS_WS2812B_Strip_Update:
 261              	.LVL21:
 262              	.LFB69:
  41:Core/Src/NOS_WS2812B_Strip.c **** 
  42:Core/Src/NOS_WS2812B_Strip.c **** void NOS_WS2812B_Strip_Update(WS2812B_Strip* strip)
  43:Core/Src/NOS_WS2812B_Strip.c **** {
 263              		.loc 1 43 1 is_stmt 1 view -0
 264              		.cfi_startproc
 265              		@ args = 0, pretend = 0, frame = 0
 266              		@ frame_needed = 0, uses_anonymous_args = 0
 267              		.loc 1 43 1 is_stmt 0 view .LVU67
 268 0000 2DE9F043 		push	{r4, r5, r6, r7, r8, r9, lr}
 269              		.cfi_def_cfa_offset 28
 270              		.cfi_offset 4, -28
 271              		.cfi_offset 5, -24
 272              		.cfi_offset 6, -20
 273              		.cfi_offset 7, -16
 274              		.cfi_offset 8, -12
 275              		.cfi_offset 9, -8
 276              		.cfi_offset 14, -4
 277 0004 83B0     		sub	sp, sp, #12
 278              		.cfi_def_cfa_offset 40
 279 0006 0746     		mov	r7, r0
  44:Core/Src/NOS_WS2812B_Strip.c ****     float coef = (float)strip->bright / 100;
 280              		.loc 1 44 5 is_stmt 1 view .LVU68
 281              		.loc 1 44 18 is_stmt 0 view .LVU69
 282 0008 C068     		ldr	r0, [r0, #12]
 283              	.LVL22:
 284              		.loc 1 44 18 view .LVU70
 285 000a FFF7FEFF 		bl	__aeabi_i2f
 286              	.LVL23:
 287              		.loc 1 44 11 view .LVU71
 288 000e 1B49     		ldr	r1, .L16
 289 0010 FFF7FEFF 		bl	__aeabi_fdiv
 290              	.LVL24:
 291 0014 8046     		mov	r8, r0
 292              	.LVL25:
  45:Core/Src/NOS_WS2812B_Strip.c ****     for(int i = 0; i < strip->pixelCount; i++)
 293              		.loc 1 45 5 is_stmt 1 view .LVU72
 294              	.LBB3:
 295              		.loc 1 45 9 view .LVU73
 296              		.loc 1 45 13 is_stmt 0 view .LVU74
 297 0016 0024     		movs	r4, #0
 298              		.loc 1 45 5 view .LVU75
 299 0018 29E0     		b	.L13
 300              	.LVL26:
 301              	.L14:
 302              	.LBB4:
ARM GAS  C:\Users\igorn\AppData\Local\Temp\ccbydyEo.s 			page 7


  46:Core/Src/NOS_WS2812B_Strip.c ****     {
  47:Core/Src/NOS_WS2812B_Strip.c ****         uint8_t currR = (float)strip->pixels[i].R * coef;
 303              		.loc 1 47 9 is_stmt 1 discriminator 3 view .LVU76
 304              		.loc 1 47 37 is_stmt 0 discriminator 3 view .LVU77
 305 001a 7A68     		ldr	r2, [r7, #4]
 306              		.loc 1 47 45 discriminator 3 view .LVU78
 307 001c 04EB4403 		add	r3, r4, r4, lsl #1
 308 0020 02EB0309 		add	r9, r2, r3
 309              		.loc 1 47 25 discriminator 3 view .LVU79
 310 0024 D05C     		ldrb	r0, [r2, r3]	@ zero_extendqisi2
 311 0026 FFF7FEFF 		bl	__aeabi_ui2f
 312              	.LVL27:
 313              		.loc 1 47 51 discriminator 3 view .LVU80
 314 002a 4146     		mov	r1, r8
 315 002c FFF7FEFF 		bl	__aeabi_fmul
 316              	.LVL28:
 317              		.loc 1 47 17 discriminator 3 view .LVU81
 318 0030 FFF7FEFF 		bl	__aeabi_f2uiz
 319              	.LVL29:
 320 0034 C5B2     		uxtb	r5, r0
 321              	.LVL30:
  48:Core/Src/NOS_WS2812B_Strip.c ****         uint8_t currG = (float)strip->pixels[i].G * coef;
 322              		.loc 1 48 9 is_stmt 1 discriminator 3 view .LVU82
 323              		.loc 1 48 25 is_stmt 0 discriminator 3 view .LVU83
 324 0036 99F80100 		ldrb	r0, [r9, #1]	@ zero_extendqisi2
 325 003a FFF7FEFF 		bl	__aeabi_ui2f
 326              	.LVL31:
 327              		.loc 1 48 51 discriminator 3 view .LVU84
 328 003e 4146     		mov	r1, r8
 329 0040 FFF7FEFF 		bl	__aeabi_fmul
 330              	.LVL32:
 331              		.loc 1 48 17 discriminator 3 view .LVU85
 332 0044 FFF7FEFF 		bl	__aeabi_f2uiz
 333              	.LVL33:
 334 0048 C6B2     		uxtb	r6, r0
 335              	.LVL34:
  49:Core/Src/NOS_WS2812B_Strip.c ****         uint8_t currB = (float)strip->pixels[i].B * coef;
 336              		.loc 1 49 9 is_stmt 1 discriminator 3 view .LVU86
 337              		.loc 1 49 25 is_stmt 0 discriminator 3 view .LVU87
 338 004a 99F80200 		ldrb	r0, [r9, #2]	@ zero_extendqisi2
 339 004e FFF7FEFF 		bl	__aeabi_ui2f
 340              	.LVL35:
 341              		.loc 1 49 51 discriminator 3 view .LVU88
 342 0052 4146     		mov	r1, r8
 343 0054 FFF7FEFF 		bl	__aeabi_fmul
 344              	.LVL36:
 345              		.loc 1 49 17 discriminator 3 view .LVU89
 346 0058 FFF7FEFF 		bl	__aeabi_f2uiz
 347              	.LVL37:
 348 005c C0B2     		uxtb	r0, r0
 349              	.LVL38:
  50:Core/Src/NOS_WS2812B_Strip.c ****         NOS_WS2812B_Strip_CoreSetPixel(strip,i,currR,currG,currB);
 350              		.loc 1 50 9 is_stmt 1 discriminator 3 view .LVU90
 351 005e 0090     		str	r0, [sp]
 352 0060 3346     		mov	r3, r6
 353 0062 2A46     		mov	r2, r5
 354 0064 2146     		mov	r1, r4
ARM GAS  C:\Users\igorn\AppData\Local\Temp\ccbydyEo.s 			page 8


 355 0066 3846     		mov	r0, r7
 356              	.LVL39:
 357              		.loc 1 50 9 is_stmt 0 discriminator 3 view .LVU91
 358 0068 FFF7FEFF 		bl	NOS_WS2812B_Strip_CoreSetPixel
 359              	.LVL40:
 360              		.loc 1 50 9 discriminator 3 view .LVU92
 361              	.LBE4:
  45:Core/Src/NOS_WS2812B_Strip.c ****     {
 362              		.loc 1 45 44 is_stmt 1 discriminator 3 view .LVU93
 363 006c 0134     		adds	r4, r4, #1
 364              	.LVL41:
 365              	.L13:
  45:Core/Src/NOS_WS2812B_Strip.c ****     {
 366              		.loc 1 45 22 discriminator 1 view .LVU94
  45:Core/Src/NOS_WS2812B_Strip.c ****     {
 367              		.loc 1 45 29 is_stmt 0 discriminator 1 view .LVU95
 368 006e BB68     		ldr	r3, [r7, #8]
  45:Core/Src/NOS_WS2812B_Strip.c ****     {
 369              		.loc 1 45 22 discriminator 1 view .LVU96
 370 0070 A342     		cmp	r3, r4
 371 0072 D2DC     		bgt	.L14
 372              	.LBE3:
  51:Core/Src/NOS_WS2812B_Strip.c ****     }
  52:Core/Src/NOS_WS2812B_Strip.c **** 
  53:Core/Src/NOS_WS2812B_Strip.c **** }
 373              		.loc 1 53 1 view .LVU97
 374 0074 03B0     		add	sp, sp, #12
 375              		.cfi_def_cfa_offset 28
 376              		@ sp needed
 377 0076 BDE8F083 		pop	{r4, r5, r6, r7, r8, r9, pc}
 378              	.LVL42:
 379              	.L17:
 380              		.loc 1 53 1 view .LVU98
 381 007a 00BF     		.align	2
 382              	.L16:
 383 007c 0000C842 		.word	1120403456
 384              		.cfi_endproc
 385              	.LFE69:
 387              		.section	.text.NOS_WS2812B_Strip_ColorFill,"ax",%progbits
 388              		.align	1
 389              		.global	NOS_WS2812B_Strip_ColorFill
 390              		.syntax unified
 391              		.thumb
 392              		.thumb_func
 394              	NOS_WS2812B_Strip_ColorFill:
 395              	.LVL43:
 396              	.LFB71:
  54:Core/Src/NOS_WS2812B_Strip.c **** 
  55:Core/Src/NOS_WS2812B_Strip.c **** void NOS_WS2812B_Strip_TestFill(WS2812B_Strip* strip)
  56:Core/Src/NOS_WS2812B_Strip.c **** {
  57:Core/Src/NOS_WS2812B_Strip.c ****     int currPixel = 0;
  58:Core/Src/NOS_WS2812B_Strip.c ****     int currColor = 0;
  59:Core/Src/NOS_WS2812B_Strip.c ****     
  60:Core/Src/NOS_WS2812B_Strip.c ****     while(currPixel < strip->pixelCount)
  61:Core/Src/NOS_WS2812B_Strip.c ****     {
  62:Core/Src/NOS_WS2812B_Strip.c ****         NOS_WS2812B_Strip_SetPixelByPixelColor(strip,currPixel,NOS_GetBaseColor(currColor));
  63:Core/Src/NOS_WS2812B_Strip.c ****         
ARM GAS  C:\Users\igorn\AppData\Local\Temp\ccbydyEo.s 			page 9


  64:Core/Src/NOS_WS2812B_Strip.c ****         currColor++;
  65:Core/Src/NOS_WS2812B_Strip.c ****         if(currColor > 11)
  66:Core/Src/NOS_WS2812B_Strip.c ****         {
  67:Core/Src/NOS_WS2812B_Strip.c ****             currColor = 0;
  68:Core/Src/NOS_WS2812B_Strip.c ****         }
  69:Core/Src/NOS_WS2812B_Strip.c **** 
  70:Core/Src/NOS_WS2812B_Strip.c ****         currPixel++;
  71:Core/Src/NOS_WS2812B_Strip.c ****     }
  72:Core/Src/NOS_WS2812B_Strip.c **** }
  73:Core/Src/NOS_WS2812B_Strip.c **** 
  74:Core/Src/NOS_WS2812B_Strip.c **** void NOS_WS2812B_Strip_ColorFill(WS2812B_Strip* strip,PixelColor color)
  75:Core/Src/NOS_WS2812B_Strip.c **** {
 397              		.loc 1 75 1 is_stmt 1 view -0
 398              		.cfi_startproc
 399              		@ args = 0, pretend = 0, frame = 8
 400              		@ frame_needed = 0, uses_anonymous_args = 0
 401              		.loc 1 75 1 is_stmt 0 view .LVU100
 402 0000 30B5     		push	{r4, r5, lr}
 403              		.cfi_def_cfa_offset 12
 404              		.cfi_offset 4, -12
 405              		.cfi_offset 5, -8
 406              		.cfi_offset 14, -4
 407 0002 85B0     		sub	sp, sp, #20
 408              		.cfi_def_cfa_offset 32
 409 0004 0546     		mov	r5, r0
 410 0006 0391     		str	r1, [sp, #12]
  76:Core/Src/NOS_WS2812B_Strip.c ****     for(int i = 0; i < strip->pixelCount; i++)
 411              		.loc 1 76 5 is_stmt 1 view .LVU101
 412              	.LBB5:
 413              		.loc 1 76 9 view .LVU102
 414              	.LVL44:
 415              		.loc 1 76 13 is_stmt 0 view .LVU103
 416 0008 0024     		movs	r4, #0
 417              		.loc 1 76 5 view .LVU104
 418 000a 0BE0     		b	.L19
 419              	.LVL45:
 420              	.L20:
  77:Core/Src/NOS_WS2812B_Strip.c ****     {
  78:Core/Src/NOS_WS2812B_Strip.c ****         NOS_WS2812B_Strip_SetPixel(strip,i,color.R,color.G,color.B);
 421              		.loc 1 78 9 is_stmt 1 discriminator 3 view .LVU105
 422 000c 9DF80E30 		ldrb	r3, [sp, #14]	@ zero_extendqisi2
 423 0010 0093     		str	r3, [sp]
 424 0012 9DF80D30 		ldrb	r3, [sp, #13]	@ zero_extendqisi2
 425 0016 9DF80C20 		ldrb	r2, [sp, #12]	@ zero_extendqisi2
 426 001a 2146     		mov	r1, r4
 427 001c 2846     		mov	r0, r5
 428 001e FFF7FEFF 		bl	NOS_WS2812B_Strip_SetPixel
 429              	.LVL46:
  76:Core/Src/NOS_WS2812B_Strip.c ****     for(int i = 0; i < strip->pixelCount; i++)
 430              		.loc 1 76 44 discriminator 3 view .LVU106
 431 0022 0134     		adds	r4, r4, #1
 432              	.LVL47:
 433              	.L19:
  76:Core/Src/NOS_WS2812B_Strip.c ****     for(int i = 0; i < strip->pixelCount; i++)
 434              		.loc 1 76 22 discriminator 1 view .LVU107
  76:Core/Src/NOS_WS2812B_Strip.c ****     for(int i = 0; i < strip->pixelCount; i++)
 435              		.loc 1 76 29 is_stmt 0 discriminator 1 view .LVU108
ARM GAS  C:\Users\igorn\AppData\Local\Temp\ccbydyEo.s 			page 10


 436 0024 AB68     		ldr	r3, [r5, #8]
  76:Core/Src/NOS_WS2812B_Strip.c ****     for(int i = 0; i < strip->pixelCount; i++)
 437              		.loc 1 76 22 discriminator 1 view .LVU109
 438 0026 A342     		cmp	r3, r4
 439 0028 F0DC     		bgt	.L20
 440              	.LBE5:
  79:Core/Src/NOS_WS2812B_Strip.c ****     }
  80:Core/Src/NOS_WS2812B_Strip.c **** }
 441              		.loc 1 80 1 view .LVU110
 442 002a 05B0     		add	sp, sp, #20
 443              		.cfi_def_cfa_offset 12
 444              		@ sp needed
 445 002c 30BD     		pop	{r4, r5, pc}
 446              		.loc 1 80 1 view .LVU111
 447              		.cfi_endproc
 448              	.LFE71:
 450              		.section	.text.NOS_WS2812B_Strip_SetPixelByRGB,"ax",%progbits
 451              		.align	1
 452              		.global	NOS_WS2812B_Strip_SetPixelByRGB
 453              		.syntax unified
 454              		.thumb
 455              		.thumb_func
 457              	NOS_WS2812B_Strip_SetPixelByRGB:
 458              	.LVL48:
 459              	.LFB72:
  81:Core/Src/NOS_WS2812B_Strip.c **** 
  82:Core/Src/NOS_WS2812B_Strip.c **** void NOS_WS2812B_Strip_SetPixelByRGB(WS2812B_Strip* strip,int pixelPos,uint32_t rgb)
  83:Core/Src/NOS_WS2812B_Strip.c **** {
 460              		.loc 1 83 1 is_stmt 1 view -0
 461              		.cfi_startproc
 462              		@ args = 0, pretend = 0, frame = 0
 463              		@ frame_needed = 0, uses_anonymous_args = 0
 464              		.loc 1 83 1 is_stmt 0 view .LVU113
 465 0000 00B5     		push	{lr}
 466              		.cfi_def_cfa_offset 4
 467              		.cfi_offset 14, -4
 468 0002 83B0     		sub	sp, sp, #12
 469              		.cfi_def_cfa_offset 16
  84:Core/Src/NOS_WS2812B_Strip.c ****     uint8_t R = (rgb & 0x00FF0000) >> 16;
 470              		.loc 1 84 5 is_stmt 1 view .LVU114
 471              	.LVL49:
  85:Core/Src/NOS_WS2812B_Strip.c ****     uint8_t G = (rgb & 0x0000FF00) >> 8;
 472              		.loc 1 85 5 view .LVU115
  86:Core/Src/NOS_WS2812B_Strip.c ****     uint8_t B = rgb & 0x000000FF;
 473              		.loc 1 86 5 view .LVU116
 474              		.loc 1 86 13 is_stmt 0 view .LVU117
 475 0004 D3B2     		uxtb	r3, r2
 476              	.LVL50:
  87:Core/Src/NOS_WS2812B_Strip.c **** 
  88:Core/Src/NOS_WS2812B_Strip.c ****     NOS_WS2812B_Strip_SetPixel(strip,pixelPos,R,G,B);
 477              		.loc 1 88 5 is_stmt 1 view .LVU118
 478 0006 0093     		str	r3, [sp]
 479 0008 C2F30723 		ubfx	r3, r2, #8, #8
 480              	.LVL51:
 481              		.loc 1 88 5 is_stmt 0 view .LVU119
 482 000c C2F30742 		ubfx	r2, r2, #16, #8
 483              	.LVL52:
ARM GAS  C:\Users\igorn\AppData\Local\Temp\ccbydyEo.s 			page 11


 484              		.loc 1 88 5 view .LVU120
 485 0010 FFF7FEFF 		bl	NOS_WS2812B_Strip_SetPixel
 486              	.LVL53:
  89:Core/Src/NOS_WS2812B_Strip.c **** }
 487              		.loc 1 89 1 view .LVU121
 488 0014 03B0     		add	sp, sp, #12
 489              		.cfi_def_cfa_offset 4
 490              		@ sp needed
 491 0016 5DF804FB 		ldr	pc, [sp], #4
 492              		.cfi_endproc
 493              	.LFE72:
 495              		.section	.text.NOS_WS2812B_Strip_SetPixelByPixelColor,"ax",%progbits
 496              		.align	1
 497              		.global	NOS_WS2812B_Strip_SetPixelByPixelColor
 498              		.syntax unified
 499              		.thumb
 500              		.thumb_func
 502              	NOS_WS2812B_Strip_SetPixelByPixelColor:
 503              	.LVL54:
 504              	.LFB73:
  90:Core/Src/NOS_WS2812B_Strip.c **** 
  91:Core/Src/NOS_WS2812B_Strip.c **** void NOS_WS2812B_Strip_SetPixelByPixelColor(WS2812B_Strip* strip,int pixelPos, PixelColor color)
  92:Core/Src/NOS_WS2812B_Strip.c **** {
 505              		.loc 1 92 1 is_stmt 1 view -0
 506              		.cfi_startproc
 507              		@ args = 0, pretend = 0, frame = 8
 508              		@ frame_needed = 0, uses_anonymous_args = 0
 509              		.loc 1 92 1 is_stmt 0 view .LVU123
 510 0000 00B5     		push	{lr}
 511              		.cfi_def_cfa_offset 4
 512              		.cfi_offset 14, -4
 513 0002 85B0     		sub	sp, sp, #20
 514              		.cfi_def_cfa_offset 24
 515 0004 0392     		str	r2, [sp, #12]
  93:Core/Src/NOS_WS2812B_Strip.c ****     NOS_WS2812B_Strip_SetPixel(strip,pixelPos,color.R,color.G,color.B);
 516              		.loc 1 93 5 is_stmt 1 view .LVU124
 517 0006 9DF80E30 		ldrb	r3, [sp, #14]	@ zero_extendqisi2
 518 000a 0093     		str	r3, [sp]
 519 000c 9DF80D30 		ldrb	r3, [sp, #13]	@ zero_extendqisi2
 520 0010 9DF80C20 		ldrb	r2, [sp, #12]	@ zero_extendqisi2
 521 0014 FFF7FEFF 		bl	NOS_WS2812B_Strip_SetPixel
 522              	.LVL55:
  94:Core/Src/NOS_WS2812B_Strip.c **** }
 523              		.loc 1 94 1 is_stmt 0 view .LVU125
 524 0018 05B0     		add	sp, sp, #20
 525              		.cfi_def_cfa_offset 4
 526              		@ sp needed
 527 001a 5DF804FB 		ldr	pc, [sp], #4
 528              		.cfi_endproc
 529              	.LFE73:
 531              		.section	.text.NOS_WS2812B_Strip_TestFill,"ax",%progbits
 532              		.align	1
 533              		.global	NOS_WS2812B_Strip_TestFill
 534              		.syntax unified
 535              		.thumb
 536              		.thumb_func
 538              	NOS_WS2812B_Strip_TestFill:
ARM GAS  C:\Users\igorn\AppData\Local\Temp\ccbydyEo.s 			page 12


 539              	.LVL56:
 540              	.LFB70:
  56:Core/Src/NOS_WS2812B_Strip.c ****     int currPixel = 0;
 541              		.loc 1 56 1 is_stmt 1 view -0
 542              		.cfi_startproc
 543              		@ args = 0, pretend = 0, frame = 8
 544              		@ frame_needed = 0, uses_anonymous_args = 0
  56:Core/Src/NOS_WS2812B_Strip.c ****     int currPixel = 0;
 545              		.loc 1 56 1 is_stmt 0 view .LVU127
 546 0000 70B5     		push	{r4, r5, r6, lr}
 547              		.cfi_def_cfa_offset 16
 548              		.cfi_offset 4, -16
 549              		.cfi_offset 5, -12
 550              		.cfi_offset 6, -8
 551              		.cfi_offset 14, -4
 552 0002 82B0     		sub	sp, sp, #8
 553              		.cfi_def_cfa_offset 24
 554 0004 0646     		mov	r6, r0
  57:Core/Src/NOS_WS2812B_Strip.c ****     int currColor = 0;
 555              		.loc 1 57 5 is_stmt 1 view .LVU128
 556              	.LVL57:
  58:Core/Src/NOS_WS2812B_Strip.c ****     
 557              		.loc 1 58 5 view .LVU129
  60:Core/Src/NOS_WS2812B_Strip.c ****     {
 558              		.loc 1 60 5 view .LVU130
  58:Core/Src/NOS_WS2812B_Strip.c ****     
 559              		.loc 1 58 9 is_stmt 0 view .LVU131
 560 0006 0024     		movs	r4, #0
  57:Core/Src/NOS_WS2812B_Strip.c ****     int currColor = 0;
 561              		.loc 1 57 9 view .LVU132
 562 0008 2546     		mov	r5, r4
  60:Core/Src/NOS_WS2812B_Strip.c ****     {
 563              		.loc 1 60 10 view .LVU133
 564 000a 00E0     		b	.L27
 565              	.LVL58:
 566              	.L28:
  70:Core/Src/NOS_WS2812B_Strip.c ****     }
 567              		.loc 1 70 9 is_stmt 1 view .LVU134
  70:Core/Src/NOS_WS2812B_Strip.c ****     }
 568              		.loc 1 70 18 is_stmt 0 view .LVU135
 569 000c 0135     		adds	r5, r5, #1
 570              	.LVL59:
 571              	.L27:
  60:Core/Src/NOS_WS2812B_Strip.c ****     {
 572              		.loc 1 60 21 is_stmt 1 view .LVU136
  60:Core/Src/NOS_WS2812B_Strip.c ****     {
 573              		.loc 1 60 28 is_stmt 0 view .LVU137
 574 000e B368     		ldr	r3, [r6, #8]
  60:Core/Src/NOS_WS2812B_Strip.c ****     {
 575              		.loc 1 60 21 view .LVU138
 576 0010 AB42     		cmp	r3, r5
 577 0012 16DD     		ble	.L32
  62:Core/Src/NOS_WS2812B_Strip.c ****         
 578              		.loc 1 62 9 is_stmt 1 view .LVU139
 579 0014 E0B2     		uxtb	r0, r4
 580 0016 FFF7FEFF 		bl	NOS_GetBaseColor
 581              	.LVL60:
ARM GAS  C:\Users\igorn\AppData\Local\Temp\ccbydyEo.s 			page 13


 582 001a 8DF80400 		strb	r0, [sp, #4]
 583 001e C0F30723 		ubfx	r3, r0, #8, #8
 584 0022 8DF80530 		strb	r3, [sp, #5]
 585 0026 C0F30740 		ubfx	r0, r0, #16, #8
 586 002a 8DF80600 		strb	r0, [sp, #6]
 587 002e 019A     		ldr	r2, [sp, #4]
 588 0030 2946     		mov	r1, r5
 589 0032 3046     		mov	r0, r6
 590 0034 FFF7FEFF 		bl	NOS_WS2812B_Strip_SetPixelByPixelColor
 591              	.LVL61:
  64:Core/Src/NOS_WS2812B_Strip.c ****         if(currColor > 11)
 592              		.loc 1 64 9 view .LVU140
  64:Core/Src/NOS_WS2812B_Strip.c ****         if(currColor > 11)
 593              		.loc 1 64 18 is_stmt 0 view .LVU141
 594 0038 0134     		adds	r4, r4, #1
 595              	.LVL62:
  65:Core/Src/NOS_WS2812B_Strip.c ****         {
 596              		.loc 1 65 9 is_stmt 1 view .LVU142
  65:Core/Src/NOS_WS2812B_Strip.c ****         {
 597              		.loc 1 65 11 is_stmt 0 view .LVU143
 598 003a 0B2C     		cmp	r4, #11
 599 003c E6DD     		ble	.L28
  67:Core/Src/NOS_WS2812B_Strip.c ****         }
 600              		.loc 1 67 23 view .LVU144
 601 003e 0024     		movs	r4, #0
 602              	.LVL63:
  67:Core/Src/NOS_WS2812B_Strip.c ****         }
 603              		.loc 1 67 23 view .LVU145
 604 0040 E4E7     		b	.L28
 605              	.LVL64:
 606              	.L32:
  72:Core/Src/NOS_WS2812B_Strip.c **** 
 607              		.loc 1 72 1 view .LVU146
 608 0042 02B0     		add	sp, sp, #8
 609              		.cfi_def_cfa_offset 16
 610              		@ sp needed
 611 0044 70BD     		pop	{r4, r5, r6, pc}
  72:Core/Src/NOS_WS2812B_Strip.c **** 
 612              		.loc 1 72 1 view .LVU147
 613              		.cfi_endproc
 614              	.LFE70:
 616              		.section	.text.NOS_WS2812B_Strip_SetBright,"ax",%progbits
 617              		.align	1
 618              		.global	NOS_WS2812B_Strip_SetBright
 619              		.syntax unified
 620              		.thumb
 621              		.thumb_func
 623              	NOS_WS2812B_Strip_SetBright:
 624              	.LVL65:
 625              	.LFB74:
  95:Core/Src/NOS_WS2812B_Strip.c **** 
  96:Core/Src/NOS_WS2812B_Strip.c **** void NOS_WS2812B_Strip_SetBright(WS2812B_Strip* strip,uint8_t bright)
  97:Core/Src/NOS_WS2812B_Strip.c **** {
 626              		.loc 1 97 1 is_stmt 1 view -0
 627              		.cfi_startproc
 628              		@ args = 0, pretend = 0, frame = 0
 629              		@ frame_needed = 0, uses_anonymous_args = 0
ARM GAS  C:\Users\igorn\AppData\Local\Temp\ccbydyEo.s 			page 14


 630              		@ link register save eliminated.
  98:Core/Src/NOS_WS2812B_Strip.c ****     strip->bright = bright;
 631              		.loc 1 98 5 view .LVU149
 632              		.loc 1 98 19 is_stmt 0 view .LVU150
 633 0000 C160     		str	r1, [r0, #12]
  99:Core/Src/NOS_WS2812B_Strip.c **** }
 634              		.loc 1 99 1 view .LVU151
 635 0002 7047     		bx	lr
 636              		.cfi_endproc
 637              	.LFE74:
 639              		.section	.text.NOS_WS2812B_Strip_Effect_Breathe_Init,"ax",%progbits
 640              		.align	1
 641              		.global	NOS_WS2812B_Strip_Effect_Breathe_Init
 642              		.syntax unified
 643              		.thumb
 644              		.thumb_func
 646              	NOS_WS2812B_Strip_Effect_Breathe_Init:
 647              	.LVL66:
 648              	.LFB75:
 100:Core/Src/NOS_WS2812B_Strip.c **** 
 101:Core/Src/NOS_WS2812B_Strip.c **** void NOS_WS2812B_Strip_Effect_Breathe_Init(Effect_Struct* effect,uint16_t speed,uint16_t step,uint1
 102:Core/Src/NOS_WS2812B_Strip.c **** {
 649              		.loc 1 102 1 is_stmt 1 view -0
 650              		.cfi_startproc
 651              		@ args = 4, pretend = 0, frame = 0
 652              		@ frame_needed = 0, uses_anonymous_args = 0
 653              		.loc 1 102 1 is_stmt 0 view .LVU153
 654 0000 2DE9F041 		push	{r4, r5, r6, r7, r8, lr}
 655              		.cfi_def_cfa_offset 24
 656              		.cfi_offset 4, -24
 657              		.cfi_offset 5, -20
 658              		.cfi_offset 6, -16
 659              		.cfi_offset 7, -12
 660              		.cfi_offset 8, -8
 661              		.cfi_offset 14, -4
 662 0004 0446     		mov	r4, r0
 663 0006 0F46     		mov	r7, r1
 664 0008 1546     		mov	r5, r2
 665 000a 1E46     		mov	r6, r3
 666 000c BDF81880 		ldrh	r8, [sp, #24]
 103:Core/Src/NOS_WS2812B_Strip.c ****         NOS_Math_SinValue_Init(&effect->value,minValue,maxValue,step);
 667              		.loc 1 103 9 is_stmt 1 view .LVU154
 668 0010 1346     		mov	r3, r2
 669              	.LVL67:
 670              		.loc 1 103 9 is_stmt 0 view .LVU155
 671 0012 4246     		mov	r2, r8
 672              	.LVL68:
 673              		.loc 1 103 9 view .LVU156
 674 0014 3146     		mov	r1, r6
 675              	.LVL69:
 676              		.loc 1 103 9 view .LVU157
 677 0016 FFF7FEFF 		bl	NOS_Math_SinValue_Init
 678              	.LVL70:
 104:Core/Src/NOS_WS2812B_Strip.c ****         effect->minValue = minValue;
 679              		.loc 1 104 9 is_stmt 1 view .LVU158
 680              		.loc 1 104 26 is_stmt 0 view .LVU159
 681 001a 6683     		strh	r6, [r4, #26]	@ movhi
ARM GAS  C:\Users\igorn\AppData\Local\Temp\ccbydyEo.s 			page 15


 105:Core/Src/NOS_WS2812B_Strip.c ****         effect->maxValue = maxValue;
 682              		.loc 1 105 9 is_stmt 1 view .LVU160
 683              		.loc 1 105 26 is_stmt 0 view .LVU161
 684 001c A4F81C80 		strh	r8, [r4, #28]	@ movhi
 106:Core/Src/NOS_WS2812B_Strip.c ****         effect->speed.data = speed;
 685              		.loc 1 106 9 is_stmt 1 view .LVU162
 686              		.loc 1 106 28 is_stmt 0 view .LVU163
 687 0020 A782     		strh	r7, [r4, #20]	@ movhi
 107:Core/Src/NOS_WS2812B_Strip.c ****         effect->step.data = step;
 688              		.loc 1 107 9 is_stmt 1 view .LVU164
 689              		.loc 1 107 27 is_stmt 0 view .LVU165
 690 0022 E582     		strh	r5, [r4, #22]	@ movhi
 108:Core/Src/NOS_WS2812B_Strip.c ****         effect->enabled = true;
 691              		.loc 1 108 9 is_stmt 1 view .LVU166
 692              		.loc 1 108 25 is_stmt 0 view .LVU167
 693 0024 0123     		movs	r3, #1
 694 0026 A377     		strb	r3, [r4, #30]
 109:Core/Src/NOS_WS2812B_Strip.c ****         effect->effectId = 0x20;   
 695              		.loc 1 109 9 is_stmt 1 view .LVU168
 696              		.loc 1 109 26 is_stmt 0 view .LVU169
 697 0028 2023     		movs	r3, #32
 698 002a E377     		strb	r3, [r4, #31]
 110:Core/Src/NOS_WS2812B_Strip.c **** }
 699              		.loc 1 110 1 view .LVU170
 700 002c BDE8F081 		pop	{r4, r5, r6, r7, r8, pc}
 701              		.loc 1 110 1 view .LVU171
 702              		.cfi_endproc
 703              	.LFE75:
 705              		.section	.text.NOS_WS2812B_Strip_Effect_Breathe_Handler,"ax",%progbits
 706              		.align	1
 707              		.global	NOS_WS2812B_Strip_Effect_Breathe_Handler
 708              		.syntax unified
 709              		.thumb
 710              		.thumb_func
 712              	NOS_WS2812B_Strip_Effect_Breathe_Handler:
 713              	.LVL71:
 714              	.LFB78:
 111:Core/Src/NOS_WS2812B_Strip.c **** 
 112:Core/Src/NOS_WS2812B_Strip.c **** void NOS_WS2812B_Strip_Effects_AddEffect(WS2812B_Strip* strip,Effect_Struct effect)
 113:Core/Src/NOS_WS2812B_Strip.c **** {
 114:Core/Src/NOS_WS2812B_Strip.c ****     if(strip->effectsCounter < 10)
 115:Core/Src/NOS_WS2812B_Strip.c ****     {
 116:Core/Src/NOS_WS2812B_Strip.c ****         switch(effect.effectId)
 117:Core/Src/NOS_WS2812B_Strip.c ****         {
 118:Core/Src/NOS_WS2812B_Strip.c ****             case 0x20:
 119:Core/Src/NOS_WS2812B_Strip.c ****                 NOS_WS2812B_Strip_Effect_Breathe_Init(&strip->effects[strip->effectsCounter],effect
 120:Core/Src/NOS_WS2812B_Strip.c ****                 break;
 121:Core/Src/NOS_WS2812B_Strip.c ****             case 0x21:
 122:Core/Src/NOS_WS2812B_Strip.c ****                 NOS_WS2812B_Strip_Effect_Rainbow_Init(&strip->effects[strip->effectsCounter],effect
 123:Core/Src/NOS_WS2812B_Strip.c ****                 break;
 124:Core/Src/NOS_WS2812B_Strip.c ****         }
 125:Core/Src/NOS_WS2812B_Strip.c **** 
 126:Core/Src/NOS_WS2812B_Strip.c ****         strip->effectsCounter++;
 127:Core/Src/NOS_WS2812B_Strip.c ****     }
 128:Core/Src/NOS_WS2812B_Strip.c **** }
 129:Core/Src/NOS_WS2812B_Strip.c **** 
 130:Core/Src/NOS_WS2812B_Strip.c **** void NOS_WS2812B_Strip_Effects_Handler(WS2812B_Strip* strip)
ARM GAS  C:\Users\igorn\AppData\Local\Temp\ccbydyEo.s 			page 16


 131:Core/Src/NOS_WS2812B_Strip.c **** {
 132:Core/Src/NOS_WS2812B_Strip.c ****     for(int i = 0; i < strip->effectsCounter; i++)
 133:Core/Src/NOS_WS2812B_Strip.c ****     {
 134:Core/Src/NOS_WS2812B_Strip.c ****         switch(strip->effects[i].effectId)
 135:Core/Src/NOS_WS2812B_Strip.c ****         {
 136:Core/Src/NOS_WS2812B_Strip.c ****             case 0x20:
 137:Core/Src/NOS_WS2812B_Strip.c ****                 NOS_WS2812B_Strip_Effect_Breathe_Handler(strip,&strip->effects[i]);
 138:Core/Src/NOS_WS2812B_Strip.c ****                 break;
 139:Core/Src/NOS_WS2812B_Strip.c ****             case 0x21:
 140:Core/Src/NOS_WS2812B_Strip.c ****                 NOS_WS2812B_Strip_Effect_Rainbow_Handler(strip,&strip->effects[i]);
 141:Core/Src/NOS_WS2812B_Strip.c ****                 break;
 142:Core/Src/NOS_WS2812B_Strip.c ****         }
 143:Core/Src/NOS_WS2812B_Strip.c ****     }
 144:Core/Src/NOS_WS2812B_Strip.c **** }
 145:Core/Src/NOS_WS2812B_Strip.c **** 
 146:Core/Src/NOS_WS2812B_Strip.c **** void NOS_WS2812B_Strip_Effect_Breathe_Handler(WS2812B_Strip* strip,Effect_Struct* effect)
 147:Core/Src/NOS_WS2812B_Strip.c **** {
 715              		.loc 1 147 1 is_stmt 1 view -0
 716              		.cfi_startproc
 717              		@ args = 0, pretend = 0, frame = 0
 718              		@ frame_needed = 0, uses_anonymous_args = 0
 148:Core/Src/NOS_WS2812B_Strip.c ****     if(strip != NULL)
 719              		.loc 1 148 5 view .LVU173
 720              		.loc 1 148 7 is_stmt 0 view .LVU174
 721 0000 D0B1     		cbz	r0, .L40
 147:Core/Src/NOS_WS2812B_Strip.c ****     if(strip != NULL)
 722              		.loc 1 147 1 view .LVU175
 723 0002 38B5     		push	{r3, r4, r5, lr}
 724              		.cfi_def_cfa_offset 16
 725              		.cfi_offset 3, -16
 726              		.cfi_offset 4, -12
 727              		.cfi_offset 5, -8
 728              		.cfi_offset 14, -4
 729 0004 0C46     		mov	r4, r1
 730 0006 0546     		mov	r5, r0
 149:Core/Src/NOS_WS2812B_Strip.c ****     {
 150:Core/Src/NOS_WS2812B_Strip.c ****         if(effect != NULL)
 731              		.loc 1 150 9 is_stmt 1 view .LVU176
 732              		.loc 1 150 11 is_stmt 0 view .LVU177
 733 0008 41B1     		cbz	r1, .L36
 151:Core/Src/NOS_WS2812B_Strip.c ****         {
 152:Core/Src/NOS_WS2812B_Strip.c ****             if(effect->enabled)
 734              		.loc 1 152 13 is_stmt 1 view .LVU178
 735              		.loc 1 152 22 is_stmt 0 view .LVU179
 736 000a 8B7F     		ldrb	r3, [r1, #30]	@ zero_extendqisi2
 737              		.loc 1 152 15 view .LVU180
 738 000c 33B1     		cbz	r3, .L36
 153:Core/Src/NOS_WS2812B_Strip.c ****             {
 154:Core/Src/NOS_WS2812B_Strip.c ****                 if(effect->timer > effect->speed.data)
 739              		.loc 1 154 17 is_stmt 1 view .LVU181
 740              		.loc 1 154 26 is_stmt 0 view .LVU182
 741 000e 0A8B     		ldrh	r2, [r1, #24]
 742              		.loc 1 154 49 view .LVU183
 743 0010 8B8A     		ldrh	r3, [r1, #20]
 744              		.loc 1 154 19 view .LVU184
 745 0012 9A42     		cmp	r2, r3
 746 0014 03D8     		bhi	.L43
ARM GAS  C:\Users\igorn\AppData\Local\Temp\ccbydyEo.s 			page 17


 747              	.LVL72:
 748              	.L38:
 155:Core/Src/NOS_WS2812B_Strip.c ****                 {
 156:Core/Src/NOS_WS2812B_Strip.c ****                     NOS_Math_SinValue_Handler(&effect->value);
 157:Core/Src/NOS_WS2812B_Strip.c ****                     NOS_WS2812B_Strip_SetBright(strip,effect->value.value);
 158:Core/Src/NOS_WS2812B_Strip.c ****                     NOS_WS2812B_Strip_Update(strip);
 159:Core/Src/NOS_WS2812B_Strip.c ****                     effect->timer = 0;
 160:Core/Src/NOS_WS2812B_Strip.c ****                 }
 161:Core/Src/NOS_WS2812B_Strip.c ****                 effect->timer++;
 749              		.loc 1 161 17 is_stmt 1 view .LVU185
 750              		.loc 1 161 23 is_stmt 0 view .LVU186
 751 0016 238B     		ldrh	r3, [r4, #24]
 752              		.loc 1 161 30 view .LVU187
 753 0018 0133     		adds	r3, r3, #1
 754 001a 2383     		strh	r3, [r4, #24]	@ movhi
 755              	.L36:
 162:Core/Src/NOS_WS2812B_Strip.c ****             }
 163:Core/Src/NOS_WS2812B_Strip.c ****         }
 164:Core/Src/NOS_WS2812B_Strip.c ****     }
 165:Core/Src/NOS_WS2812B_Strip.c **** }
 756              		.loc 1 165 1 view .LVU188
 757 001c 38BD     		pop	{r3, r4, r5, pc}
 758              	.LVL73:
 759              	.L43:
 156:Core/Src/NOS_WS2812B_Strip.c ****                     NOS_WS2812B_Strip_SetBright(strip,effect->value.value);
 760              		.loc 1 156 21 is_stmt 1 view .LVU189
 761 001e 0846     		mov	r0, r1
 762              	.LVL74:
 156:Core/Src/NOS_WS2812B_Strip.c ****                     NOS_WS2812B_Strip_SetBright(strip,effect->value.value);
 763              		.loc 1 156 21 is_stmt 0 view .LVU190
 764 0020 FFF7FEFF 		bl	NOS_Math_SinValue_Handler
 765              	.LVL75:
 157:Core/Src/NOS_WS2812B_Strip.c ****                     NOS_WS2812B_Strip_Update(strip);
 766              		.loc 1 157 21 is_stmt 1 view .LVU191
 767 0024 2178     		ldrb	r1, [r4]	@ zero_extendqisi2
 768 0026 2846     		mov	r0, r5
 769 0028 FFF7FEFF 		bl	NOS_WS2812B_Strip_SetBright
 770              	.LVL76:
 158:Core/Src/NOS_WS2812B_Strip.c ****                     effect->timer = 0;
 771              		.loc 1 158 21 view .LVU192
 772 002c 2846     		mov	r0, r5
 773 002e FFF7FEFF 		bl	NOS_WS2812B_Strip_Update
 774              	.LVL77:
 159:Core/Src/NOS_WS2812B_Strip.c ****                 }
 775              		.loc 1 159 21 view .LVU193
 159:Core/Src/NOS_WS2812B_Strip.c ****                 }
 776              		.loc 1 159 35 is_stmt 0 view .LVU194
 777 0032 0023     		movs	r3, #0
 778 0034 2383     		strh	r3, [r4, #24]	@ movhi
 779 0036 EEE7     		b	.L38
 780              	.LVL78:
 781              	.L40:
 782              		.cfi_def_cfa_offset 0
 783              		.cfi_restore 3
 784              		.cfi_restore 4
 785              		.cfi_restore 5
 786              		.cfi_restore 14
ARM GAS  C:\Users\igorn\AppData\Local\Temp\ccbydyEo.s 			page 18


 159:Core/Src/NOS_WS2812B_Strip.c ****                 }
 787              		.loc 1 159 35 view .LVU195
 788 0038 7047     		bx	lr
 789              		.cfi_endproc
 790              	.LFE78:
 792              		.section	.text.NOS_WS2812B_Strip_Effect_Rainbow_Init,"ax",%progbits
 793              		.align	1
 794              		.global	NOS_WS2812B_Strip_Effect_Rainbow_Init
 795              		.syntax unified
 796              		.thumb
 797              		.thumb_func
 799              	NOS_WS2812B_Strip_Effect_Rainbow_Init:
 800              	.LVL79:
 801              	.LFB80:
 166:Core/Src/NOS_WS2812B_Strip.c **** 
 167:Core/Src/NOS_WS2812B_Strip.c **** void NOS_WS2812B_Strip_Effects_UpdateEffect(WS2812B_Strip* strip,Effect_Struct effect,uint8_t pos)
 168:Core/Src/NOS_WS2812B_Strip.c **** {
 169:Core/Src/NOS_WS2812B_Strip.c ****     if(pos < 10)
 170:Core/Src/NOS_WS2812B_Strip.c ****     {
 171:Core/Src/NOS_WS2812B_Strip.c ****         switch(effect.effectId)
 172:Core/Src/NOS_WS2812B_Strip.c ****         {
 173:Core/Src/NOS_WS2812B_Strip.c ****             case 0x20:
 174:Core/Src/NOS_WS2812B_Strip.c ****                 NOS_WS2812B_Strip_Effect_Breathe_Init(&strip->effects[pos],effect.speed.data,effect
 175:Core/Src/NOS_WS2812B_Strip.c ****                 break;
 176:Core/Src/NOS_WS2812B_Strip.c ****             case 0x21:
 177:Core/Src/NOS_WS2812B_Strip.c ****                 NOS_WS2812B_Strip_Effect_Rainbow_Init(&strip->effects[pos],effect.speed.data,effect
 178:Core/Src/NOS_WS2812B_Strip.c ****                 break;
 179:Core/Src/NOS_WS2812B_Strip.c ****         }
 180:Core/Src/NOS_WS2812B_Strip.c ****     }
 181:Core/Src/NOS_WS2812B_Strip.c **** }
 182:Core/Src/NOS_WS2812B_Strip.c **** 
 183:Core/Src/NOS_WS2812B_Strip.c **** void NOS_WS2812B_Strip_Effect_Rainbow_Init(Effect_Struct* effect,uint16_t speed,uint16_t step,uint1
 184:Core/Src/NOS_WS2812B_Strip.c **** {
 802              		.loc 1 184 1 is_stmt 1 view -0
 803              		.cfi_startproc
 804              		@ args = 4, pretend = 0, frame = 0
 805              		@ frame_needed = 0, uses_anonymous_args = 0
 806              		.loc 1 184 1 is_stmt 0 view .LVU197
 807 0000 2DE9F041 		push	{r4, r5, r6, r7, r8, lr}
 808              		.cfi_def_cfa_offset 24
 809              		.cfi_offset 4, -24
 810              		.cfi_offset 5, -20
 811              		.cfi_offset 6, -16
 812              		.cfi_offset 7, -12
 813              		.cfi_offset 8, -8
 814              		.cfi_offset 14, -4
 815 0004 0446     		mov	r4, r0
 816 0006 0F46     		mov	r7, r1
 817 0008 1546     		mov	r5, r2
 818 000a 1E46     		mov	r6, r3
 819 000c BDF81880 		ldrh	r8, [sp, #24]
 185:Core/Src/NOS_WS2812B_Strip.c ****         NOS_Math_SinValue_Init(&effect->value,minValue,maxValue,step);
 820              		.loc 1 185 9 is_stmt 1 view .LVU198
 821 0010 1346     		mov	r3, r2
 822              	.LVL80:
 823              		.loc 1 185 9 is_stmt 0 view .LVU199
 824 0012 4246     		mov	r2, r8
ARM GAS  C:\Users\igorn\AppData\Local\Temp\ccbydyEo.s 			page 19


 825              	.LVL81:
 826              		.loc 1 185 9 view .LVU200
 827 0014 3146     		mov	r1, r6
 828              	.LVL82:
 829              		.loc 1 185 9 view .LVU201
 830 0016 FFF7FEFF 		bl	NOS_Math_SinValue_Init
 831              	.LVL83:
 186:Core/Src/NOS_WS2812B_Strip.c ****         effect->minValue = minValue;
 832              		.loc 1 186 9 is_stmt 1 view .LVU202
 833              		.loc 1 186 26 is_stmt 0 view .LVU203
 834 001a 6683     		strh	r6, [r4, #26]	@ movhi
 187:Core/Src/NOS_WS2812B_Strip.c ****         effect->maxValue = maxValue;
 835              		.loc 1 187 9 is_stmt 1 view .LVU204
 836              		.loc 1 187 26 is_stmt 0 view .LVU205
 837 001c A4F81C80 		strh	r8, [r4, #28]	@ movhi
 188:Core/Src/NOS_WS2812B_Strip.c ****         effect->speed.data = speed;
 838              		.loc 1 188 9 is_stmt 1 view .LVU206
 839              		.loc 1 188 28 is_stmt 0 view .LVU207
 840 0020 A782     		strh	r7, [r4, #20]	@ movhi
 189:Core/Src/NOS_WS2812B_Strip.c ****         effect->step.data = step;
 841              		.loc 1 189 9 is_stmt 1 view .LVU208
 842              		.loc 1 189 27 is_stmt 0 view .LVU209
 843 0022 E582     		strh	r5, [r4, #22]	@ movhi
 190:Core/Src/NOS_WS2812B_Strip.c ****         effect->enabled = true;
 844              		.loc 1 190 9 is_stmt 1 view .LVU210
 845              		.loc 1 190 25 is_stmt 0 view .LVU211
 846 0024 0123     		movs	r3, #1
 847 0026 A377     		strb	r3, [r4, #30]
 191:Core/Src/NOS_WS2812B_Strip.c ****         effect->effectId = 0x21;  
 848              		.loc 1 191 9 is_stmt 1 view .LVU212
 849              		.loc 1 191 26 is_stmt 0 view .LVU213
 850 0028 2123     		movs	r3, #33
 851 002a E377     		strb	r3, [r4, #31]
 192:Core/Src/NOS_WS2812B_Strip.c **** }
 852              		.loc 1 192 1 view .LVU214
 853 002c BDE8F081 		pop	{r4, r5, r6, r7, r8, pc}
 854              		.loc 1 192 1 view .LVU215
 855              		.cfi_endproc
 856              	.LFE80:
 858              		.section	.text.NOS_WS2812B_Strip_Effects_AddEffect,"ax",%progbits
 859              		.align	1
 860              		.global	NOS_WS2812B_Strip_Effects_AddEffect
 861              		.syntax unified
 862              		.thumb
 863              		.thumb_func
 865              	NOS_WS2812B_Strip_Effects_AddEffect:
 866              	.LVL84:
 867              	.LFB76:
 113:Core/Src/NOS_WS2812B_Strip.c ****     if(strip->effectsCounter < 10)
 868              		.loc 1 113 1 is_stmt 1 view -0
 869              		.cfi_startproc
 870              		@ args = 36, pretend = 16, frame = 0
 871              		@ frame_needed = 0, uses_anonymous_args = 0
 113:Core/Src/NOS_WS2812B_Strip.c ****     if(strip->effectsCounter < 10)
 872              		.loc 1 113 1 is_stmt 0 view .LVU217
 873 0000 84B0     		sub	sp, sp, #16
 874              		.cfi_def_cfa_offset 16
ARM GAS  C:\Users\igorn\AppData\Local\Temp\ccbydyEo.s 			page 20


 875 0002 10B5     		push	{r4, lr}
 876              		.cfi_def_cfa_offset 24
 877              		.cfi_offset 4, -24
 878              		.cfi_offset 14, -20
 879 0004 82B0     		sub	sp, sp, #8
 880              		.cfi_def_cfa_offset 32
 881 0006 0446     		mov	r4, r0
 882 0008 05A8     		add	r0, sp, #20
 883              	.LVL85:
 113:Core/Src/NOS_WS2812B_Strip.c ****     if(strip->effectsCounter < 10)
 884              		.loc 1 113 1 view .LVU218
 885 000a 80E80E00 		stm	r0, {r1, r2, r3}
 114:Core/Src/NOS_WS2812B_Strip.c ****     {
 886              		.loc 1 114 5 is_stmt 1 view .LVU219
 114:Core/Src/NOS_WS2812B_Strip.c ****     {
 887              		.loc 1 114 13 is_stmt 0 view .LVU220
 888 000e 94F85001 		ldrb	r0, [r4, #336]	@ zero_extendqisi2
 114:Core/Src/NOS_WS2812B_Strip.c ****     {
 889              		.loc 1 114 7 view .LVU221
 890 0012 0928     		cmp	r0, #9
 891 0014 0AD8     		bhi	.L46
 116:Core/Src/NOS_WS2812B_Strip.c ****         {
 892              		.loc 1 116 9 is_stmt 1 view .LVU222
 116:Core/Src/NOS_WS2812B_Strip.c ****         {
 893              		.loc 1 116 22 is_stmt 0 view .LVU223
 894 0016 9DF83330 		ldrb	r3, [sp, #51]	@ zero_extendqisi2
 116:Core/Src/NOS_WS2812B_Strip.c ****         {
 895              		.loc 1 116 9 view .LVU224
 896 001a 202B     		cmp	r3, #32
 897 001c 0BD0     		beq	.L48
 898 001e 212B     		cmp	r3, #33
 899 0020 18D0     		beq	.L49
 900              	.L50:
 126:Core/Src/NOS_WS2812B_Strip.c ****     }
 901              		.loc 1 126 9 is_stmt 1 view .LVU225
 126:Core/Src/NOS_WS2812B_Strip.c ****     }
 902              		.loc 1 126 14 is_stmt 0 view .LVU226
 903 0022 94F85031 		ldrb	r3, [r4, #336]	@ zero_extendqisi2
 126:Core/Src/NOS_WS2812B_Strip.c ****     }
 904              		.loc 1 126 30 view .LVU227
 905 0026 0133     		adds	r3, r3, #1
 906 0028 84F85031 		strb	r3, [r4, #336]
 907              	.L46:
 128:Core/Src/NOS_WS2812B_Strip.c **** 
 908              		.loc 1 128 1 view .LVU228
 909 002c 02B0     		add	sp, sp, #8
 910              		.cfi_remember_state
 911              		.cfi_def_cfa_offset 24
 912              		@ sp needed
 913 002e BDE81040 		pop	{r4, lr}
 914              		.cfi_restore 14
 915              		.cfi_restore 4
 916              		.cfi_def_cfa_offset 16
 917              	.LVL86:
 128:Core/Src/NOS_WS2812B_Strip.c **** 
 918              		.loc 1 128 1 view .LVU229
 919 0032 04B0     		add	sp, sp, #16
ARM GAS  C:\Users\igorn\AppData\Local\Temp\ccbydyEo.s 			page 21


 920              		.cfi_def_cfa_offset 0
 921 0034 7047     		bx	lr
 922              	.LVL87:
 923              	.L48:
 924              		.cfi_restore_state
 119:Core/Src/NOS_WS2812B_Strip.c ****                 break;
 925              		.loc 1 119 17 is_stmt 1 view .LVU230
 926 0036 4001     		lsls	r0, r0, #5
 927 0038 1030     		adds	r0, r0, #16
 928 003a BDF83030 		ldrh	r3, [sp, #48]
 929 003e 0093     		str	r3, [sp]
 930 0040 BDF82E30 		ldrh	r3, [sp, #46]
 931 0044 BDF82A20 		ldrh	r2, [sp, #42]
 932 0048 BDF82810 		ldrh	r1, [sp, #40]
 933 004c 2044     		add	r0, r0, r4
 934 004e FFF7FEFF 		bl	NOS_WS2812B_Strip_Effect_Breathe_Init
 935              	.LVL88:
 120:Core/Src/NOS_WS2812B_Strip.c ****             case 0x21:
 936              		.loc 1 120 17 view .LVU231
 937 0052 E6E7     		b	.L50
 938              	.L49:
 122:Core/Src/NOS_WS2812B_Strip.c ****                 break;
 939              		.loc 1 122 17 view .LVU232
 940 0054 4001     		lsls	r0, r0, #5
 941 0056 1030     		adds	r0, r0, #16
 942 0058 BDF83030 		ldrh	r3, [sp, #48]
 943 005c 0093     		str	r3, [sp]
 944 005e BDF82E30 		ldrh	r3, [sp, #46]
 945 0062 BDF82A20 		ldrh	r2, [sp, #42]
 946 0066 BDF82810 		ldrh	r1, [sp, #40]
 947 006a 2044     		add	r0, r0, r4
 948 006c FFF7FEFF 		bl	NOS_WS2812B_Strip_Effect_Rainbow_Init
 949              	.LVL89:
 123:Core/Src/NOS_WS2812B_Strip.c ****         }
 950              		.loc 1 123 17 view .LVU233
 951 0070 D7E7     		b	.L50
 952              		.cfi_endproc
 953              	.LFE76:
 955              		.section	.text.NOS_WS2812B_Strip_Effects_UpdateEffect,"ax",%progbits
 956              		.align	1
 957              		.global	NOS_WS2812B_Strip_Effects_UpdateEffect
 958              		.syntax unified
 959              		.thumb
 960              		.thumb_func
 962              	NOS_WS2812B_Strip_Effects_UpdateEffect:
 963              	.LVL90:
 964              	.LFB79:
 168:Core/Src/NOS_WS2812B_Strip.c ****     if(pos < 10)
 965              		.loc 1 168 1 view -0
 966              		.cfi_startproc
 967              		@ args = 40, pretend = 16, frame = 0
 968              		@ frame_needed = 0, uses_anonymous_args = 0
 168:Core/Src/NOS_WS2812B_Strip.c ****     if(pos < 10)
 969              		.loc 1 168 1 is_stmt 0 view .LVU235
 970 0000 84B0     		sub	sp, sp, #16
 971              		.cfi_def_cfa_offset 16
 972 0002 00B5     		push	{lr}
ARM GAS  C:\Users\igorn\AppData\Local\Temp\ccbydyEo.s 			page 22


 973              		.cfi_def_cfa_offset 20
 974              		.cfi_offset 14, -20
 975 0004 83B0     		sub	sp, sp, #12
 976              		.cfi_def_cfa_offset 32
 977 0006 0DF1140C 		add	ip, sp, #20
 978 000a 8CE80E00 		stm	ip, {r1, r2, r3}
 979 000e 9DF83430 		ldrb	r3, [sp, #52]	@ zero_extendqisi2
 169:Core/Src/NOS_WS2812B_Strip.c ****     {
 980              		.loc 1 169 5 is_stmt 1 view .LVU236
 169:Core/Src/NOS_WS2812B_Strip.c ****     {
 981              		.loc 1 169 7 is_stmt 0 view .LVU237
 982 0012 092B     		cmp	r3, #9
 983 0014 05D8     		bhi	.L52
 171:Core/Src/NOS_WS2812B_Strip.c ****         {
 984              		.loc 1 171 9 is_stmt 1 view .LVU238
 171:Core/Src/NOS_WS2812B_Strip.c ****         {
 985              		.loc 1 171 22 is_stmt 0 view .LVU239
 986 0016 9DF83320 		ldrb	r2, [sp, #51]	@ zero_extendqisi2
 171:Core/Src/NOS_WS2812B_Strip.c ****         {
 987              		.loc 1 171 9 view .LVU240
 988 001a 202A     		cmp	r2, #32
 989 001c 06D0     		beq	.L54
 990 001e 212A     		cmp	r2, #33
 991 0020 14D0     		beq	.L55
 992              	.LVL91:
 993              	.L52:
 181:Core/Src/NOS_WS2812B_Strip.c **** 
 994              		.loc 1 181 1 view .LVU241
 995 0022 03B0     		add	sp, sp, #12
 996              		.cfi_remember_state
 997              		.cfi_def_cfa_offset 20
 998              		@ sp needed
 999 0024 5DF804EB 		ldr	lr, [sp], #4
 1000              		.cfi_restore 14
 1001              		.cfi_def_cfa_offset 16
 1002 0028 04B0     		add	sp, sp, #16
 1003              		.cfi_def_cfa_offset 0
 1004 002a 7047     		bx	lr
 1005              	.LVL92:
 1006              	.L54:
 1007              		.cfi_restore_state
 174:Core/Src/NOS_WS2812B_Strip.c ****                 break;
 1008              		.loc 1 174 17 is_stmt 1 view .LVU242
 1009 002c 5B01     		lsls	r3, r3, #5
 1010 002e 03F1100C 		add	ip, r3, #16
 1011 0032 BDF83030 		ldrh	r3, [sp, #48]
 1012 0036 0093     		str	r3, [sp]
 1013 0038 BDF82E30 		ldrh	r3, [sp, #46]
 1014 003c BDF82A20 		ldrh	r2, [sp, #42]
 1015 0040 BDF82810 		ldrh	r1, [sp, #40]
 1016 0044 6044     		add	r0, r0, ip
 1017              	.LVL93:
 174:Core/Src/NOS_WS2812B_Strip.c ****                 break;
 1018              		.loc 1 174 17 is_stmt 0 view .LVU243
 1019 0046 FFF7FEFF 		bl	NOS_WS2812B_Strip_Effect_Breathe_Init
 1020              	.LVL94:
 175:Core/Src/NOS_WS2812B_Strip.c ****             case 0x21:
ARM GAS  C:\Users\igorn\AppData\Local\Temp\ccbydyEo.s 			page 23


 1021              		.loc 1 175 17 is_stmt 1 view .LVU244
 1022 004a EAE7     		b	.L52
 1023              	.LVL95:
 1024              	.L55:
 177:Core/Src/NOS_WS2812B_Strip.c ****                 break;
 1025              		.loc 1 177 17 view .LVU245
 1026 004c 5B01     		lsls	r3, r3, #5
 1027 004e 03F1100C 		add	ip, r3, #16
 1028 0052 BDF83030 		ldrh	r3, [sp, #48]
 1029 0056 0093     		str	r3, [sp]
 1030 0058 BDF82E30 		ldrh	r3, [sp, #46]
 1031 005c BDF82A20 		ldrh	r2, [sp, #42]
 1032 0060 BDF82810 		ldrh	r1, [sp, #40]
 1033 0064 6044     		add	r0, r0, ip
 1034              	.LVL96:
 177:Core/Src/NOS_WS2812B_Strip.c ****                 break;
 1035              		.loc 1 177 17 is_stmt 0 view .LVU246
 1036 0066 FFF7FEFF 		bl	NOS_WS2812B_Strip_Effect_Rainbow_Init
 1037              	.LVL97:
 178:Core/Src/NOS_WS2812B_Strip.c ****         }
 1038              		.loc 1 178 17 is_stmt 1 view .LVU247
 181:Core/Src/NOS_WS2812B_Strip.c **** 
 1039              		.loc 1 181 1 is_stmt 0 view .LVU248
 1040 006a DAE7     		b	.L52
 1041              		.cfi_endproc
 1042              	.LFE79:
 1044              		.section	.text.NOS_WS2812B_Strip_Effect_Rainbow_Handler,"ax",%progbits
 1045              		.align	1
 1046              		.global	NOS_WS2812B_Strip_Effect_Rainbow_Handler
 1047              		.syntax unified
 1048              		.thumb
 1049              		.thumb_func
 1051              	NOS_WS2812B_Strip_Effect_Rainbow_Handler:
 1052              	.LVL98:
 1053              	.LFB81:
 193:Core/Src/NOS_WS2812B_Strip.c **** 
 194:Core/Src/NOS_WS2812B_Strip.c **** void NOS_WS2812B_Strip_Effect_Rainbow_Handler(WS2812B_Strip* strip,Effect_Struct* effect)
 195:Core/Src/NOS_WS2812B_Strip.c **** {
 1054              		.loc 1 195 1 is_stmt 1 view -0
 1055              		.cfi_startproc
 1056              		@ args = 0, pretend = 0, frame = 8
 1057              		@ frame_needed = 0, uses_anonymous_args = 0
 196:Core/Src/NOS_WS2812B_Strip.c ****     if(strip != NULL)
 1058              		.loc 1 196 5 view .LVU250
 1059              		.loc 1 196 7 is_stmt 0 view .LVU251
 1060 0000 0028     		cmp	r0, #0
 1061 0002 00F00181 		beq	.L76
 195:Core/Src/NOS_WS2812B_Strip.c ****     if(strip != NULL)
 1062              		.loc 1 195 1 view .LVU252
 1063 0006 70B5     		push	{r4, r5, r6, lr}
 1064              		.cfi_def_cfa_offset 16
 1065              		.cfi_offset 4, -16
 1066              		.cfi_offset 5, -12
 1067              		.cfi_offset 6, -8
 1068              		.cfi_offset 14, -4
 1069 0008 82B0     		sub	sp, sp, #8
 1070              		.cfi_def_cfa_offset 24
ARM GAS  C:\Users\igorn\AppData\Local\Temp\ccbydyEo.s 			page 24


 1071 000a 0C46     		mov	r4, r1
 1072 000c 0546     		mov	r5, r0
 197:Core/Src/NOS_WS2812B_Strip.c ****     {
 198:Core/Src/NOS_WS2812B_Strip.c ****         if(effect != NULL)
 1073              		.loc 1 198 9 is_stmt 1 view .LVU253
 1074              		.loc 1 198 11 is_stmt 0 view .LVU254
 1075 000e 41B1     		cbz	r1, .L57
 199:Core/Src/NOS_WS2812B_Strip.c ****         {
 200:Core/Src/NOS_WS2812B_Strip.c ****             if(effect->enabled)
 1076              		.loc 1 200 13 is_stmt 1 view .LVU255
 1077              		.loc 1 200 22 is_stmt 0 view .LVU256
 1078 0010 8B7F     		ldrb	r3, [r1, #30]	@ zero_extendqisi2
 1079              		.loc 1 200 15 view .LVU257
 1080 0012 33B1     		cbz	r3, .L57
 201:Core/Src/NOS_WS2812B_Strip.c ****             {
 202:Core/Src/NOS_WS2812B_Strip.c ****                 if(effect->timer > effect->speed.data)
 1081              		.loc 1 202 17 is_stmt 1 view .LVU258
 1082              		.loc 1 202 26 is_stmt 0 view .LVU259
 1083 0014 0A8B     		ldrh	r2, [r1, #24]
 1084              		.loc 1 202 49 view .LVU260
 1085 0016 8B8A     		ldrh	r3, [r1, #20]
 1086              		.loc 1 202 19 view .LVU261
 1087 0018 9A42     		cmp	r2, r3
 1088 001a 04D8     		bhi	.L79
 1089              	.LVL99:
 1090              	.L59:
 203:Core/Src/NOS_WS2812B_Strip.c ****                 {
 204:Core/Src/NOS_WS2812B_Strip.c ****                     NOS_Math_SinValue_Handler(&effect->value);
 205:Core/Src/NOS_WS2812B_Strip.c **** 
 206:Core/Src/NOS_WS2812B_Strip.c ****                     uint16_t number = NOS_Math_GetSinValue(&effect->value);
 207:Core/Src/NOS_WS2812B_Strip.c ****                     uint8_t iteration = number / 0x7F;
 208:Core/Src/NOS_WS2812B_Strip.c **** 
 209:Core/Src/NOS_WS2812B_Strip.c ****                     PixelColor curr = { 0,0,0 };
 210:Core/Src/NOS_WS2812B_Strip.c ****                     number = number - 0x7F * iteration;
 211:Core/Src/NOS_WS2812B_Strip.c **** 
 212:Core/Src/NOS_WS2812B_Strip.c ****                     switch (iteration)
 213:Core/Src/NOS_WS2812B_Strip.c ****                     {
 214:Core/Src/NOS_WS2812B_Strip.c ****                         case 0:
 215:Core/Src/NOS_WS2812B_Strip.c ****                         curr = NOS_GetBaseColor((NOS_BaseColors)iteration);
 216:Core/Src/NOS_WS2812B_Strip.c ****                         curr.G = number;
 217:Core/Src/NOS_WS2812B_Strip.c ****                         break;
 218:Core/Src/NOS_WS2812B_Strip.c **** 
 219:Core/Src/NOS_WS2812B_Strip.c ****                         case 1:
 220:Core/Src/NOS_WS2812B_Strip.c ****                         curr = NOS_GetBaseColor((NOS_BaseColors)iteration);
 221:Core/Src/NOS_WS2812B_Strip.c ****                         curr.G = 0x7F + number;
 222:Core/Src/NOS_WS2812B_Strip.c ****                         break;
 223:Core/Src/NOS_WS2812B_Strip.c **** 
 224:Core/Src/NOS_WS2812B_Strip.c ****                         case 2:
 225:Core/Src/NOS_WS2812B_Strip.c ****                         curr = NOS_GetBaseColor((NOS_BaseColors)iteration);
 226:Core/Src/NOS_WS2812B_Strip.c ****                         curr.B = 0xFF - number;
 227:Core/Src/NOS_WS2812B_Strip.c ****                         break;
 228:Core/Src/NOS_WS2812B_Strip.c **** 
 229:Core/Src/NOS_WS2812B_Strip.c ****                         case 3:
 230:Core/Src/NOS_WS2812B_Strip.c ****                         curr = NOS_GetBaseColor((NOS_BaseColors)iteration);
 231:Core/Src/NOS_WS2812B_Strip.c ****                         curr.B = 0x7F - number;
 232:Core/Src/NOS_WS2812B_Strip.c ****                         break;
 233:Core/Src/NOS_WS2812B_Strip.c **** 
ARM GAS  C:\Users\igorn\AppData\Local\Temp\ccbydyEo.s 			page 25


 234:Core/Src/NOS_WS2812B_Strip.c ****                         case 4:
 235:Core/Src/NOS_WS2812B_Strip.c ****                         curr = NOS_GetBaseColor((NOS_BaseColors)iteration);
 236:Core/Src/NOS_WS2812B_Strip.c ****                         curr.R = number;
 237:Core/Src/NOS_WS2812B_Strip.c ****                         break;
 238:Core/Src/NOS_WS2812B_Strip.c **** 
 239:Core/Src/NOS_WS2812B_Strip.c ****                         case 5:
 240:Core/Src/NOS_WS2812B_Strip.c ****                         curr = NOS_GetBaseColor((NOS_BaseColors)iteration);
 241:Core/Src/NOS_WS2812B_Strip.c ****                         curr.R = 0x7F + number;
 242:Core/Src/NOS_WS2812B_Strip.c ****                         break;
 243:Core/Src/NOS_WS2812B_Strip.c **** 
 244:Core/Src/NOS_WS2812B_Strip.c ****                         case 6:
 245:Core/Src/NOS_WS2812B_Strip.c ****                         curr = NOS_GetBaseColor((NOS_BaseColors)iteration);
 246:Core/Src/NOS_WS2812B_Strip.c ****                         curr.G = 0xFF - number;
 247:Core/Src/NOS_WS2812B_Strip.c ****                         break;
 248:Core/Src/NOS_WS2812B_Strip.c **** 
 249:Core/Src/NOS_WS2812B_Strip.c ****                         case 7:
 250:Core/Src/NOS_WS2812B_Strip.c ****                         curr = NOS_GetBaseColor((NOS_BaseColors)iteration);
 251:Core/Src/NOS_WS2812B_Strip.c ****                         curr.G = 0x7F - number;
 252:Core/Src/NOS_WS2812B_Strip.c ****                         break;
 253:Core/Src/NOS_WS2812B_Strip.c **** 
 254:Core/Src/NOS_WS2812B_Strip.c ****                         case 8:
 255:Core/Src/NOS_WS2812B_Strip.c ****                         curr = NOS_GetBaseColor((NOS_BaseColors)iteration);
 256:Core/Src/NOS_WS2812B_Strip.c ****                         curr.B = number;
 257:Core/Src/NOS_WS2812B_Strip.c ****                         break;
 258:Core/Src/NOS_WS2812B_Strip.c **** 
 259:Core/Src/NOS_WS2812B_Strip.c ****                         case 9:
 260:Core/Src/NOS_WS2812B_Strip.c ****                         curr = NOS_GetBaseColor((NOS_BaseColors)iteration);
 261:Core/Src/NOS_WS2812B_Strip.c ****                         curr.B = 0x7F + number;
 262:Core/Src/NOS_WS2812B_Strip.c ****                         break;
 263:Core/Src/NOS_WS2812B_Strip.c **** 
 264:Core/Src/NOS_WS2812B_Strip.c ****                         case 10:
 265:Core/Src/NOS_WS2812B_Strip.c ****                         curr = NOS_GetBaseColor((NOS_BaseColors)iteration);
 266:Core/Src/NOS_WS2812B_Strip.c ****                         curr.R = 0xFF - number;
 267:Core/Src/NOS_WS2812B_Strip.c ****                         break;
 268:Core/Src/NOS_WS2812B_Strip.c **** 
 269:Core/Src/NOS_WS2812B_Strip.c ****                         case 11:
 270:Core/Src/NOS_WS2812B_Strip.c ****                         curr = NOS_GetBaseColor((NOS_BaseColors)iteration);
 271:Core/Src/NOS_WS2812B_Strip.c ****                         curr.R = 0x7F - number;
 272:Core/Src/NOS_WS2812B_Strip.c ****                         break;
 273:Core/Src/NOS_WS2812B_Strip.c **** 
 274:Core/Src/NOS_WS2812B_Strip.c ****                         default:
 275:Core/Src/NOS_WS2812B_Strip.c ****                         break;
 276:Core/Src/NOS_WS2812B_Strip.c ****                     }
 277:Core/Src/NOS_WS2812B_Strip.c ****                     
 278:Core/Src/NOS_WS2812B_Strip.c **** 
 279:Core/Src/NOS_WS2812B_Strip.c ****                     NOS_WS2812B_Strip_ColorFill(strip,curr);
 280:Core/Src/NOS_WS2812B_Strip.c ****                     NOS_WS2812B_Strip_Update(strip);
 281:Core/Src/NOS_WS2812B_Strip.c ****                     effect->timer = 0;
 282:Core/Src/NOS_WS2812B_Strip.c ****                 }
 283:Core/Src/NOS_WS2812B_Strip.c ****                 effect->timer++;
 1091              		.loc 1 283 17 is_stmt 1 view .LVU262
 1092              		.loc 1 283 23 is_stmt 0 view .LVU263
 1093 001c 238B     		ldrh	r3, [r4, #24]
 1094              		.loc 1 283 30 view .LVU264
 1095 001e 0133     		adds	r3, r3, #1
 1096 0020 2383     		strh	r3, [r4, #24]	@ movhi
 1097              	.L57:
ARM GAS  C:\Users\igorn\AppData\Local\Temp\ccbydyEo.s 			page 26


 284:Core/Src/NOS_WS2812B_Strip.c ****             }
 285:Core/Src/NOS_WS2812B_Strip.c ****         }
 286:Core/Src/NOS_WS2812B_Strip.c ****     }
 287:Core/Src/NOS_WS2812B_Strip.c **** }
 1098              		.loc 1 287 1 view .LVU265
 1099 0022 02B0     		add	sp, sp, #8
 1100              		.cfi_remember_state
 1101              		.cfi_def_cfa_offset 16
 1102              		@ sp needed
 1103 0024 70BD     		pop	{r4, r5, r6, pc}
 1104              	.LVL100:
 1105              	.L79:
 1106              		.cfi_restore_state
 1107              	.LBB6:
 204:Core/Src/NOS_WS2812B_Strip.c **** 
 1108              		.loc 1 204 21 is_stmt 1 view .LVU266
 1109 0026 0846     		mov	r0, r1
 1110              	.LVL101:
 204:Core/Src/NOS_WS2812B_Strip.c **** 
 1111              		.loc 1 204 21 is_stmt 0 view .LVU267
 1112 0028 FFF7FEFF 		bl	NOS_Math_SinValue_Handler
 1113              	.LVL102:
 206:Core/Src/NOS_WS2812B_Strip.c ****                     uint8_t iteration = number / 0x7F;
 1114              		.loc 1 206 21 is_stmt 1 view .LVU268
 206:Core/Src/NOS_WS2812B_Strip.c ****                     uint8_t iteration = number / 0x7F;
 1115              		.loc 1 206 39 is_stmt 0 view .LVU269
 1116 002c 2046     		mov	r0, r4
 1117 002e FFF7FEFF 		bl	NOS_Math_GetSinValue
 1118              	.LVL103:
 206:Core/Src/NOS_WS2812B_Strip.c ****                     uint8_t iteration = number / 0x7F;
 1119              		.loc 1 206 30 view .LVU270
 1120 0032 82B2     		uxth	r2, r0
 1121              	.LVL104:
 207:Core/Src/NOS_WS2812B_Strip.c **** 
 1122              		.loc 1 207 21 is_stmt 1 view .LVU271
 207:Core/Src/NOS_WS2812B_Strip.c **** 
 1123              		.loc 1 207 29 is_stmt 0 view .LVU272
 1124 0034 754B     		ldr	r3, .L80
 1125 0036 A3FB0213 		umull	r1, r3, r3, r2
 1126 003a D11A     		subs	r1, r2, r3
 1127 003c 03EB5100 		add	r0, r3, r1, lsr #1
 1128 0040 C0F38710 		ubfx	r0, r0, #6, #8
 1129              	.LVL105:
 209:Core/Src/NOS_WS2812B_Strip.c ****                     number = number - 0x7F * iteration;
 1130              		.loc 1 209 21 is_stmt 1 view .LVU273
 209:Core/Src/NOS_WS2812B_Strip.c ****                     number = number - 0x7F * iteration;
 1131              		.loc 1 209 32 is_stmt 0 view .LVU274
 1132 0044 0023     		movs	r3, #0
 1133 0046 8DF80430 		strb	r3, [sp, #4]
 1134 004a 8DF80530 		strb	r3, [sp, #5]
 1135 004e 8DF80630 		strb	r3, [sp, #6]
 210:Core/Src/NOS_WS2812B_Strip.c **** 
 1136              		.loc 1 210 21 is_stmt 1 view .LVU275
 210:Core/Src/NOS_WS2812B_Strip.c **** 
 1137              		.loc 1 210 37 is_stmt 0 view .LVU276
 1138 0052 A0EBC013 		sub	r3, r0, r0, lsl #7
 1139 0056 9BB2     		uxth	r3, r3
ARM GAS  C:\Users\igorn\AppData\Local\Temp\ccbydyEo.s 			page 27


 210:Core/Src/NOS_WS2812B_Strip.c **** 
 1140              		.loc 1 210 28 view .LVU277
 1141 0058 1344     		add	r3, r3, r2
 1142 005a 9EB2     		uxth	r6, r3
 1143              	.LVL106:
 212:Core/Src/NOS_WS2812B_Strip.c ****                     {
 1144              		.loc 1 212 21 is_stmt 1 view .LVU278
 1145 005c 0B28     		cmp	r0, #11
 1146 005e 15D8     		bhi	.L60
 1147 0060 DFE800F0 		tbb	[pc, r0]
 1148              	.L62:
 1149 0064 06       		.byte	(.L73-.L62)/2
 1150 0065 1E       		.byte	(.L72-.L62)/2
 1151 0066 2F       		.byte	(.L71-.L62)/2
 1152 0067 3F       		.byte	(.L70-.L62)/2
 1153 0068 50       		.byte	(.L69-.L62)/2
 1154 0069 5F       		.byte	(.L68-.L62)/2
 1155 006a 70       		.byte	(.L67-.L62)/2
 1156 006b 80       		.byte	(.L66-.L62)/2
 1157 006c 91       		.byte	(.L65-.L62)/2
 1158 006d A0       		.byte	(.L64-.L62)/2
 1159 006e B1       		.byte	(.L63-.L62)/2
 1160 006f C1       		.byte	(.L61-.L62)/2
 1161              		.p2align 1
 1162              	.L73:
 215:Core/Src/NOS_WS2812B_Strip.c ****                         curr.G = number;
 1163              		.loc 1 215 25 view .LVU279
 215:Core/Src/NOS_WS2812B_Strip.c ****                         curr.G = number;
 1164              		.loc 1 215 32 is_stmt 0 view .LVU280
 1165 0070 FFF7FEFF 		bl	NOS_GetBaseColor
 1166              	.LVL107:
 215:Core/Src/NOS_WS2812B_Strip.c ****                         curr.G = number;
 1167              		.loc 1 215 32 view .LVU281
 1168 0074 8DF80400 		strb	r0, [sp, #4]
 1169 0078 C0F30723 		ubfx	r3, r0, #8, #8
 1170 007c 8DF80530 		strb	r3, [sp, #5]
 1171 0080 C0F30740 		ubfx	r0, r0, #16, #8
 1172 0084 8DF80600 		strb	r0, [sp, #6]
 216:Core/Src/NOS_WS2812B_Strip.c ****                         break;
 1173              		.loc 1 216 25 is_stmt 1 view .LVU282
 216:Core/Src/NOS_WS2812B_Strip.c ****                         break;
 1174              		.loc 1 216 32 is_stmt 0 view .LVU283
 1175 0088 8DF80560 		strb	r6, [sp, #5]
 217:Core/Src/NOS_WS2812B_Strip.c **** 
 1176              		.loc 1 217 25 is_stmt 1 view .LVU284
 1177              	.L60:
 279:Core/Src/NOS_WS2812B_Strip.c ****                     NOS_WS2812B_Strip_Update(strip);
 1178              		.loc 1 279 21 view .LVU285
 1179 008c 0199     		ldr	r1, [sp, #4]
 1180 008e 2846     		mov	r0, r5
 1181 0090 FFF7FEFF 		bl	NOS_WS2812B_Strip_ColorFill
 1182              	.LVL108:
 280:Core/Src/NOS_WS2812B_Strip.c ****                     effect->timer = 0;
 1183              		.loc 1 280 21 view .LVU286
 1184 0094 2846     		mov	r0, r5
 1185 0096 FFF7FEFF 		bl	NOS_WS2812B_Strip_Update
 1186              	.LVL109:
ARM GAS  C:\Users\igorn\AppData\Local\Temp\ccbydyEo.s 			page 28


 281:Core/Src/NOS_WS2812B_Strip.c ****                 }
 1187              		.loc 1 281 21 view .LVU287
 281:Core/Src/NOS_WS2812B_Strip.c ****                 }
 1188              		.loc 1 281 35 is_stmt 0 view .LVU288
 1189 009a 0023     		movs	r3, #0
 1190 009c 2383     		strh	r3, [r4, #24]	@ movhi
 1191 009e BDE7     		b	.L59
 1192              	.LVL110:
 1193              	.L72:
 220:Core/Src/NOS_WS2812B_Strip.c ****                         curr.G = 0x7F + number;
 1194              		.loc 1 220 25 is_stmt 1 view .LVU289
 220:Core/Src/NOS_WS2812B_Strip.c ****                         curr.G = 0x7F + number;
 1195              		.loc 1 220 32 is_stmt 0 view .LVU290
 1196 00a0 FFF7FEFF 		bl	NOS_GetBaseColor
 1197              	.LVL111:
 220:Core/Src/NOS_WS2812B_Strip.c ****                         curr.G = 0x7F + number;
 1198              		.loc 1 220 32 view .LVU291
 1199 00a4 8DF80400 		strb	r0, [sp, #4]
 1200 00a8 C0F30723 		ubfx	r3, r0, #8, #8
 1201 00ac 8DF80530 		strb	r3, [sp, #5]
 1202 00b0 C0F30740 		ubfx	r0, r0, #16, #8
 1203 00b4 8DF80600 		strb	r0, [sp, #6]
 221:Core/Src/NOS_WS2812B_Strip.c ****                         break;
 1204              		.loc 1 221 25 is_stmt 1 view .LVU292
 221:Core/Src/NOS_WS2812B_Strip.c ****                         break;
 1205              		.loc 1 221 39 is_stmt 0 view .LVU293
 1206 00b8 06F17F03 		add	r3, r6, #127
 221:Core/Src/NOS_WS2812B_Strip.c ****                         break;
 1207              		.loc 1 221 32 view .LVU294
 1208 00bc 8DF80530 		strb	r3, [sp, #5]
 222:Core/Src/NOS_WS2812B_Strip.c **** 
 1209              		.loc 1 222 25 is_stmt 1 view .LVU295
 1210 00c0 E4E7     		b	.L60
 1211              	.LVL112:
 1212              	.L71:
 225:Core/Src/NOS_WS2812B_Strip.c ****                         curr.B = 0xFF - number;
 1213              		.loc 1 225 25 view .LVU296
 225:Core/Src/NOS_WS2812B_Strip.c ****                         curr.B = 0xFF - number;
 1214              		.loc 1 225 32 is_stmt 0 view .LVU297
 1215 00c2 FFF7FEFF 		bl	NOS_GetBaseColor
 1216              	.LVL113:
 225:Core/Src/NOS_WS2812B_Strip.c ****                         curr.B = 0xFF - number;
 1217              		.loc 1 225 32 view .LVU298
 1218 00c6 8DF80400 		strb	r0, [sp, #4]
 1219 00ca C0F30723 		ubfx	r3, r0, #8, #8
 1220 00ce 8DF80530 		strb	r3, [sp, #5]
 1221 00d2 C0F30740 		ubfx	r0, r0, #16, #8
 1222 00d6 8DF80600 		strb	r0, [sp, #6]
 226:Core/Src/NOS_WS2812B_Strip.c ****                         break;
 1223              		.loc 1 226 25 is_stmt 1 view .LVU299
 226:Core/Src/NOS_WS2812B_Strip.c ****                         break;
 1224              		.loc 1 226 39 is_stmt 0 view .LVU300
 1225 00da F343     		mvns	r3, r6
 226:Core/Src/NOS_WS2812B_Strip.c ****                         break;
 1226              		.loc 1 226 32 view .LVU301
 1227 00dc 8DF80630 		strb	r3, [sp, #6]
 227:Core/Src/NOS_WS2812B_Strip.c **** 
ARM GAS  C:\Users\igorn\AppData\Local\Temp\ccbydyEo.s 			page 29


 1228              		.loc 1 227 25 is_stmt 1 view .LVU302
 1229 00e0 D4E7     		b	.L60
 1230              	.LVL114:
 1231              	.L70:
 230:Core/Src/NOS_WS2812B_Strip.c ****                         curr.B = 0x7F - number;
 1232              		.loc 1 230 25 view .LVU303
 230:Core/Src/NOS_WS2812B_Strip.c ****                         curr.B = 0x7F - number;
 1233              		.loc 1 230 32 is_stmt 0 view .LVU304
 1234 00e2 FFF7FEFF 		bl	NOS_GetBaseColor
 1235              	.LVL115:
 230:Core/Src/NOS_WS2812B_Strip.c ****                         curr.B = 0x7F - number;
 1236              		.loc 1 230 32 view .LVU305
 1237 00e6 8DF80400 		strb	r0, [sp, #4]
 1238 00ea C0F30723 		ubfx	r3, r0, #8, #8
 1239 00ee 8DF80530 		strb	r3, [sp, #5]
 1240 00f2 C0F30740 		ubfx	r0, r0, #16, #8
 1241 00f6 8DF80600 		strb	r0, [sp, #6]
 231:Core/Src/NOS_WS2812B_Strip.c ****                         break;
 1242              		.loc 1 231 25 is_stmt 1 view .LVU306
 231:Core/Src/NOS_WS2812B_Strip.c ****                         break;
 1243              		.loc 1 231 39 is_stmt 0 view .LVU307
 1244 00fa C6F17F03 		rsb	r3, r6, #127
 231:Core/Src/NOS_WS2812B_Strip.c ****                         break;
 1245              		.loc 1 231 32 view .LVU308
 1246 00fe 8DF80630 		strb	r3, [sp, #6]
 232:Core/Src/NOS_WS2812B_Strip.c **** 
 1247              		.loc 1 232 25 is_stmt 1 view .LVU309
 1248 0102 C3E7     		b	.L60
 1249              	.LVL116:
 1250              	.L69:
 235:Core/Src/NOS_WS2812B_Strip.c ****                         curr.R = number;
 1251              		.loc 1 235 25 view .LVU310
 235:Core/Src/NOS_WS2812B_Strip.c ****                         curr.R = number;
 1252              		.loc 1 235 32 is_stmt 0 view .LVU311
 1253 0104 FFF7FEFF 		bl	NOS_GetBaseColor
 1254              	.LVL117:
 235:Core/Src/NOS_WS2812B_Strip.c ****                         curr.R = number;
 1255              		.loc 1 235 32 view .LVU312
 1256 0108 8DF80400 		strb	r0, [sp, #4]
 1257 010c C0F30723 		ubfx	r3, r0, #8, #8
 1258 0110 8DF80530 		strb	r3, [sp, #5]
 1259 0114 C0F30740 		ubfx	r0, r0, #16, #8
 1260 0118 8DF80600 		strb	r0, [sp, #6]
 236:Core/Src/NOS_WS2812B_Strip.c ****                         break;
 1261              		.loc 1 236 25 is_stmt 1 view .LVU313
 236:Core/Src/NOS_WS2812B_Strip.c ****                         break;
 1262              		.loc 1 236 32 is_stmt 0 view .LVU314
 1263 011c 8DF80460 		strb	r6, [sp, #4]
 237:Core/Src/NOS_WS2812B_Strip.c **** 
 1264              		.loc 1 237 25 is_stmt 1 view .LVU315
 1265 0120 B4E7     		b	.L60
 1266              	.LVL118:
 1267              	.L68:
 240:Core/Src/NOS_WS2812B_Strip.c ****                         curr.R = 0x7F + number;
 1268              		.loc 1 240 25 view .LVU316
 240:Core/Src/NOS_WS2812B_Strip.c ****                         curr.R = 0x7F + number;
 1269              		.loc 1 240 32 is_stmt 0 view .LVU317
ARM GAS  C:\Users\igorn\AppData\Local\Temp\ccbydyEo.s 			page 30


 1270 0122 FFF7FEFF 		bl	NOS_GetBaseColor
 1271              	.LVL119:
 240:Core/Src/NOS_WS2812B_Strip.c ****                         curr.R = 0x7F + number;
 1272              		.loc 1 240 32 view .LVU318
 1273 0126 8DF80400 		strb	r0, [sp, #4]
 1274 012a C0F30723 		ubfx	r3, r0, #8, #8
 1275 012e 8DF80530 		strb	r3, [sp, #5]
 1276 0132 C0F30740 		ubfx	r0, r0, #16, #8
 1277 0136 8DF80600 		strb	r0, [sp, #6]
 241:Core/Src/NOS_WS2812B_Strip.c ****                         break;
 1278              		.loc 1 241 25 is_stmt 1 view .LVU319
 241:Core/Src/NOS_WS2812B_Strip.c ****                         break;
 1279              		.loc 1 241 39 is_stmt 0 view .LVU320
 1280 013a 06F17F03 		add	r3, r6, #127
 241:Core/Src/NOS_WS2812B_Strip.c ****                         break;
 1281              		.loc 1 241 32 view .LVU321
 1282 013e 8DF80430 		strb	r3, [sp, #4]
 242:Core/Src/NOS_WS2812B_Strip.c **** 
 1283              		.loc 1 242 25 is_stmt 1 view .LVU322
 1284 0142 A3E7     		b	.L60
 1285              	.LVL120:
 1286              	.L67:
 245:Core/Src/NOS_WS2812B_Strip.c ****                         curr.G = 0xFF - number;
 1287              		.loc 1 245 25 view .LVU323
 245:Core/Src/NOS_WS2812B_Strip.c ****                         curr.G = 0xFF - number;
 1288              		.loc 1 245 32 is_stmt 0 view .LVU324
 1289 0144 FFF7FEFF 		bl	NOS_GetBaseColor
 1290              	.LVL121:
 245:Core/Src/NOS_WS2812B_Strip.c ****                         curr.G = 0xFF - number;
 1291              		.loc 1 245 32 view .LVU325
 1292 0148 8DF80400 		strb	r0, [sp, #4]
 1293 014c C0F30723 		ubfx	r3, r0, #8, #8
 1294 0150 8DF80530 		strb	r3, [sp, #5]
 1295 0154 C0F30740 		ubfx	r0, r0, #16, #8
 1296 0158 8DF80600 		strb	r0, [sp, #6]
 246:Core/Src/NOS_WS2812B_Strip.c ****                         break;
 1297              		.loc 1 246 25 is_stmt 1 view .LVU326
 246:Core/Src/NOS_WS2812B_Strip.c ****                         break;
 1298              		.loc 1 246 39 is_stmt 0 view .LVU327
 1299 015c F343     		mvns	r3, r6
 246:Core/Src/NOS_WS2812B_Strip.c ****                         break;
 1300              		.loc 1 246 32 view .LVU328
 1301 015e 8DF80530 		strb	r3, [sp, #5]
 247:Core/Src/NOS_WS2812B_Strip.c **** 
 1302              		.loc 1 247 25 is_stmt 1 view .LVU329
 1303 0162 93E7     		b	.L60
 1304              	.LVL122:
 1305              	.L66:
 250:Core/Src/NOS_WS2812B_Strip.c ****                         curr.G = 0x7F - number;
 1306              		.loc 1 250 25 view .LVU330
 250:Core/Src/NOS_WS2812B_Strip.c ****                         curr.G = 0x7F - number;
 1307              		.loc 1 250 32 is_stmt 0 view .LVU331
 1308 0164 FFF7FEFF 		bl	NOS_GetBaseColor
 1309              	.LVL123:
 250:Core/Src/NOS_WS2812B_Strip.c ****                         curr.G = 0x7F - number;
 1310              		.loc 1 250 32 view .LVU332
 1311 0168 8DF80400 		strb	r0, [sp, #4]
ARM GAS  C:\Users\igorn\AppData\Local\Temp\ccbydyEo.s 			page 31


 1312 016c C0F30723 		ubfx	r3, r0, #8, #8
 1313 0170 8DF80530 		strb	r3, [sp, #5]
 1314 0174 C0F30740 		ubfx	r0, r0, #16, #8
 1315 0178 8DF80600 		strb	r0, [sp, #6]
 251:Core/Src/NOS_WS2812B_Strip.c ****                         break;
 1316              		.loc 1 251 25 is_stmt 1 view .LVU333
 251:Core/Src/NOS_WS2812B_Strip.c ****                         break;
 1317              		.loc 1 251 39 is_stmt 0 view .LVU334
 1318 017c C6F17F03 		rsb	r3, r6, #127
 251:Core/Src/NOS_WS2812B_Strip.c ****                         break;
 1319              		.loc 1 251 32 view .LVU335
 1320 0180 8DF80530 		strb	r3, [sp, #5]
 252:Core/Src/NOS_WS2812B_Strip.c **** 
 1321              		.loc 1 252 25 is_stmt 1 view .LVU336
 1322 0184 82E7     		b	.L60
 1323              	.LVL124:
 1324              	.L65:
 255:Core/Src/NOS_WS2812B_Strip.c ****                         curr.B = number;
 1325              		.loc 1 255 25 view .LVU337
 255:Core/Src/NOS_WS2812B_Strip.c ****                         curr.B = number;
 1326              		.loc 1 255 32 is_stmt 0 view .LVU338
 1327 0186 FFF7FEFF 		bl	NOS_GetBaseColor
 1328              	.LVL125:
 255:Core/Src/NOS_WS2812B_Strip.c ****                         curr.B = number;
 1329              		.loc 1 255 32 view .LVU339
 1330 018a 8DF80400 		strb	r0, [sp, #4]
 1331 018e C0F30723 		ubfx	r3, r0, #8, #8
 1332 0192 8DF80530 		strb	r3, [sp, #5]
 1333 0196 C0F30740 		ubfx	r0, r0, #16, #8
 1334 019a 8DF80600 		strb	r0, [sp, #6]
 256:Core/Src/NOS_WS2812B_Strip.c ****                         break;
 1335              		.loc 1 256 25 is_stmt 1 view .LVU340
 256:Core/Src/NOS_WS2812B_Strip.c ****                         break;
 1336              		.loc 1 256 32 is_stmt 0 view .LVU341
 1337 019e 8DF80660 		strb	r6, [sp, #6]
 257:Core/Src/NOS_WS2812B_Strip.c **** 
 1338              		.loc 1 257 25 is_stmt 1 view .LVU342
 1339 01a2 73E7     		b	.L60
 1340              	.LVL126:
 1341              	.L64:
 260:Core/Src/NOS_WS2812B_Strip.c ****                         curr.B = 0x7F + number;
 1342              		.loc 1 260 25 view .LVU343
 260:Core/Src/NOS_WS2812B_Strip.c ****                         curr.B = 0x7F + number;
 1343              		.loc 1 260 32 is_stmt 0 view .LVU344
 1344 01a4 FFF7FEFF 		bl	NOS_GetBaseColor
 1345              	.LVL127:
 260:Core/Src/NOS_WS2812B_Strip.c ****                         curr.B = 0x7F + number;
 1346              		.loc 1 260 32 view .LVU345
 1347 01a8 8DF80400 		strb	r0, [sp, #4]
 1348 01ac C0F30723 		ubfx	r3, r0, #8, #8
 1349 01b0 8DF80530 		strb	r3, [sp, #5]
 1350 01b4 C0F30740 		ubfx	r0, r0, #16, #8
 1351 01b8 8DF80600 		strb	r0, [sp, #6]
 261:Core/Src/NOS_WS2812B_Strip.c ****                         break;
 1352              		.loc 1 261 25 is_stmt 1 view .LVU346
 261:Core/Src/NOS_WS2812B_Strip.c ****                         break;
 1353              		.loc 1 261 39 is_stmt 0 view .LVU347
ARM GAS  C:\Users\igorn\AppData\Local\Temp\ccbydyEo.s 			page 32


 1354 01bc 06F17F03 		add	r3, r6, #127
 261:Core/Src/NOS_WS2812B_Strip.c ****                         break;
 1355              		.loc 1 261 32 view .LVU348
 1356 01c0 8DF80630 		strb	r3, [sp, #6]
 262:Core/Src/NOS_WS2812B_Strip.c **** 
 1357              		.loc 1 262 25 is_stmt 1 view .LVU349
 1358 01c4 62E7     		b	.L60
 1359              	.LVL128:
 1360              	.L63:
 265:Core/Src/NOS_WS2812B_Strip.c ****                         curr.R = 0xFF - number;
 1361              		.loc 1 265 25 view .LVU350
 265:Core/Src/NOS_WS2812B_Strip.c ****                         curr.R = 0xFF - number;
 1362              		.loc 1 265 32 is_stmt 0 view .LVU351
 1363 01c6 FFF7FEFF 		bl	NOS_GetBaseColor
 1364              	.LVL129:
 265:Core/Src/NOS_WS2812B_Strip.c ****                         curr.R = 0xFF - number;
 1365              		.loc 1 265 32 view .LVU352
 1366 01ca 8DF80400 		strb	r0, [sp, #4]
 1367 01ce C0F30723 		ubfx	r3, r0, #8, #8
 1368 01d2 8DF80530 		strb	r3, [sp, #5]
 1369 01d6 C0F30740 		ubfx	r0, r0, #16, #8
 1370 01da 8DF80600 		strb	r0, [sp, #6]
 266:Core/Src/NOS_WS2812B_Strip.c ****                         break;
 1371              		.loc 1 266 25 is_stmt 1 view .LVU353
 266:Core/Src/NOS_WS2812B_Strip.c ****                         break;
 1372              		.loc 1 266 39 is_stmt 0 view .LVU354
 1373 01de F343     		mvns	r3, r6
 266:Core/Src/NOS_WS2812B_Strip.c ****                         break;
 1374              		.loc 1 266 32 view .LVU355
 1375 01e0 8DF80430 		strb	r3, [sp, #4]
 267:Core/Src/NOS_WS2812B_Strip.c **** 
 1376              		.loc 1 267 25 is_stmt 1 view .LVU356
 1377 01e4 52E7     		b	.L60
 1378              	.LVL130:
 1379              	.L61:
 270:Core/Src/NOS_WS2812B_Strip.c ****                         curr.R = 0x7F - number;
 1380              		.loc 1 270 25 view .LVU357
 270:Core/Src/NOS_WS2812B_Strip.c ****                         curr.R = 0x7F - number;
 1381              		.loc 1 270 32 is_stmt 0 view .LVU358
 1382 01e6 FFF7FEFF 		bl	NOS_GetBaseColor
 1383              	.LVL131:
 270:Core/Src/NOS_WS2812B_Strip.c ****                         curr.R = 0x7F - number;
 1384              		.loc 1 270 32 view .LVU359
 1385 01ea 8DF80400 		strb	r0, [sp, #4]
 1386 01ee C0F30723 		ubfx	r3, r0, #8, #8
 1387 01f2 8DF80530 		strb	r3, [sp, #5]
 1388 01f6 C0F30740 		ubfx	r0, r0, #16, #8
 1389 01fa 8DF80600 		strb	r0, [sp, #6]
 271:Core/Src/NOS_WS2812B_Strip.c ****                         break;
 1390              		.loc 1 271 25 is_stmt 1 view .LVU360
 271:Core/Src/NOS_WS2812B_Strip.c ****                         break;
 1391              		.loc 1 271 39 is_stmt 0 view .LVU361
 1392 01fe C6F17F03 		rsb	r3, r6, #127
 271:Core/Src/NOS_WS2812B_Strip.c ****                         break;
 1393              		.loc 1 271 32 view .LVU362
 1394 0202 8DF80430 		strb	r3, [sp, #4]
 272:Core/Src/NOS_WS2812B_Strip.c **** 
ARM GAS  C:\Users\igorn\AppData\Local\Temp\ccbydyEo.s 			page 33


 1395              		.loc 1 272 25 is_stmt 1 view .LVU363
 1396 0206 41E7     		b	.L60
 1397              	.LVL132:
 1398              	.L76:
 1399              		.cfi_def_cfa_offset 0
 1400              		.cfi_restore 4
 1401              		.cfi_restore 5
 1402              		.cfi_restore 6
 1403              		.cfi_restore 14
 272:Core/Src/NOS_WS2812B_Strip.c **** 
 1404              		.loc 1 272 25 is_stmt 0 view .LVU364
 1405 0208 7047     		bx	lr
 1406              	.L81:
 1407 020a 00BF     		.align	2
 1408              	.L80:
 1409 020c 11080402 		.word	33818641
 1410              	.LBE6:
 1411              		.cfi_endproc
 1412              	.LFE81:
 1414              		.section	.text.NOS_WS2812B_Strip_Effects_Handler,"ax",%progbits
 1415              		.align	1
 1416              		.global	NOS_WS2812B_Strip_Effects_Handler
 1417              		.syntax unified
 1418              		.thumb
 1419              		.thumb_func
 1421              	NOS_WS2812B_Strip_Effects_Handler:
 1422              	.LVL133:
 1423              	.LFB77:
 131:Core/Src/NOS_WS2812B_Strip.c ****     for(int i = 0; i < strip->effectsCounter; i++)
 1424              		.loc 1 131 1 is_stmt 1 view -0
 1425              		.cfi_startproc
 1426              		@ args = 0, pretend = 0, frame = 0
 1427              		@ frame_needed = 0, uses_anonymous_args = 0
 131:Core/Src/NOS_WS2812B_Strip.c ****     for(int i = 0; i < strip->effectsCounter; i++)
 1428              		.loc 1 131 1 is_stmt 0 view .LVU366
 1429 0000 38B5     		push	{r3, r4, r5, lr}
 1430              		.cfi_def_cfa_offset 16
 1431              		.cfi_offset 3, -16
 1432              		.cfi_offset 4, -12
 1433              		.cfi_offset 5, -8
 1434              		.cfi_offset 14, -4
 1435 0002 0546     		mov	r5, r0
 132:Core/Src/NOS_WS2812B_Strip.c ****     {
 1436              		.loc 1 132 5 is_stmt 1 view .LVU367
 1437              	.LBB7:
 132:Core/Src/NOS_WS2812B_Strip.c ****     {
 1438              		.loc 1 132 9 view .LVU368
 1439              	.LVL134:
 132:Core/Src/NOS_WS2812B_Strip.c ****     {
 1440              		.loc 1 132 13 is_stmt 0 view .LVU369
 1441 0004 0024     		movs	r4, #0
 132:Core/Src/NOS_WS2812B_Strip.c ****     {
 1442              		.loc 1 132 5 view .LVU370
 1443 0006 06E0     		b	.L83
 1444              	.LVL135:
 1445              	.L84:
 137:Core/Src/NOS_WS2812B_Strip.c ****                 break;
ARM GAS  C:\Users\igorn\AppData\Local\Temp\ccbydyEo.s 			page 34


 1446              		.loc 1 137 17 is_stmt 1 view .LVU371
 1447 0008 6101     		lsls	r1, r4, #5
 1448 000a 1031     		adds	r1, r1, #16
 1449 000c 2944     		add	r1, r1, r5
 1450 000e 2846     		mov	r0, r5
 1451 0010 FFF7FEFF 		bl	NOS_WS2812B_Strip_Effect_Breathe_Handler
 1452              	.LVL136:
 138:Core/Src/NOS_WS2812B_Strip.c ****             case 0x21:
 1453              		.loc 1 138 17 view .LVU372
 1454              	.L86:
 132:Core/Src/NOS_WS2812B_Strip.c ****     {
 1455              		.loc 1 132 48 discriminator 2 view .LVU373
 1456 0014 0134     		adds	r4, r4, #1
 1457              	.LVL137:
 1458              	.L83:
 132:Core/Src/NOS_WS2812B_Strip.c ****     {
 1459              		.loc 1 132 22 discriminator 1 view .LVU374
 132:Core/Src/NOS_WS2812B_Strip.c ****     {
 1460              		.loc 1 132 29 is_stmt 0 discriminator 1 view .LVU375
 1461 0016 95F85031 		ldrb	r3, [r5, #336]	@ zero_extendqisi2
 132:Core/Src/NOS_WS2812B_Strip.c ****     {
 1462              		.loc 1 132 22 discriminator 1 view .LVU376
 1463 001a A342     		cmp	r3, r4
 1464 001c 0EDD     		ble	.L89
 134:Core/Src/NOS_WS2812B_Strip.c ****         {
 1465              		.loc 1 134 9 is_stmt 1 view .LVU377
 134:Core/Src/NOS_WS2812B_Strip.c ****         {
 1466              		.loc 1 134 33 is_stmt 0 view .LVU378
 1467 001e 05EB4413 		add	r3, r5, r4, lsl #5
 1468 0022 93F82F30 		ldrb	r3, [r3, #47]	@ zero_extendqisi2
 134:Core/Src/NOS_WS2812B_Strip.c ****         {
 1469              		.loc 1 134 9 view .LVU379
 1470 0026 202B     		cmp	r3, #32
 1471 0028 EED0     		beq	.L84
 1472 002a 212B     		cmp	r3, #33
 1473 002c F2D1     		bne	.L86
 140:Core/Src/NOS_WS2812B_Strip.c ****                 break;
 1474              		.loc 1 140 17 is_stmt 1 view .LVU380
 1475 002e 6101     		lsls	r1, r4, #5
 1476 0030 1031     		adds	r1, r1, #16
 1477 0032 2944     		add	r1, r1, r5
 1478 0034 2846     		mov	r0, r5
 1479 0036 FFF7FEFF 		bl	NOS_WS2812B_Strip_Effect_Rainbow_Handler
 1480              	.LVL138:
 141:Core/Src/NOS_WS2812B_Strip.c ****         }
 1481              		.loc 1 141 17 view .LVU381
 1482 003a EBE7     		b	.L86
 1483              	.L89:
 1484              	.LBE7:
 144:Core/Src/NOS_WS2812B_Strip.c **** 
 1485              		.loc 1 144 1 is_stmt 0 view .LVU382
 1486 003c 38BD     		pop	{r3, r4, r5, pc}
 144:Core/Src/NOS_WS2812B_Strip.c **** 
 1487              		.loc 1 144 1 view .LVU383
 1488              		.cfi_endproc
 1489              	.LFE77:
 1491              		.text
ARM GAS  C:\Users\igorn\AppData\Local\Temp\ccbydyEo.s 			page 35


 1492              	.Letext0:
 1493              		.file 2 "c:\\users\\igorn\\appdata\\roaming\\code\\user\\globalstorage\\bmd.stm32-for-vscode\\@xpa
 1494              		.file 3 "c:\\users\\igorn\\appdata\\roaming\\code\\user\\globalstorage\\bmd.stm32-for-vscode\\@xpa
 1495              		.file 4 "Core/Inc/NOS_Typedefs.h"
 1496              		.file 5 "Core/Inc/NOS_BaseColors.h"
 1497              		.file 6 "Core/Inc/NOS_Math.h"
ARM GAS  C:\Users\igorn\AppData\Local\Temp\ccbydyEo.s 			page 36

