ARM GAS  C:\Users\igorn\AppData\Local\Temp\ccA8v2ip.s 			page 1


   1              		.cpu cortex-m3
   2              		.arch armv7-m
   3              		.fpu softvfp
   4              		.eabi_attribute 20, 1
   5              		.eabi_attribute 21, 1
   6              		.eabi_attribute 23, 3
   7              		.eabi_attribute 24, 1
   8              		.eabi_attribute 25, 1
   9              		.eabi_attribute 26, 1
  10              		.eabi_attribute 30, 1
  11              		.eabi_attribute 34, 1
  12              		.eabi_attribute 18, 4
  13              		.file	"NOS_BaseColors.c"
  14              		.text
  15              	.Ltext0:
  16              		.cfi_sections	.debug_frame
  17              		.file 1 "Core/Src/NOS_BaseColors.c"
  18              		.section	.text.NOS_PixelColor_SetColor,"ax",%progbits
  19              		.align	1
  20              		.global	NOS_PixelColor_SetColor
  21              		.syntax unified
  22              		.thumb
  23              		.thumb_func
  25              	NOS_PixelColor_SetColor:
  26              	.LVL0:
  27              	.LFB65:
   1:Core/Src/NOS_BaseColors.c **** #include "NOS_BaseColors.h"
   2:Core/Src/NOS_BaseColors.c **** 
   3:Core/Src/NOS_BaseColors.c **** void NOS_PixelColor_SetColor(PixelColor* color,uint8_t R,uint8_t G,uint8_t B)
   4:Core/Src/NOS_BaseColors.c **** {
  28              		.loc 1 4 1 view -0
  29              		.cfi_startproc
  30              		@ args = 0, pretend = 0, frame = 0
  31              		@ frame_needed = 0, uses_anonymous_args = 0
  32              		@ link register save eliminated.
   5:Core/Src/NOS_BaseColors.c ****     color->R = R;
  33              		.loc 1 5 5 view .LVU1
  34              		.loc 1 5 14 is_stmt 0 view .LVU2
  35 0000 0170     		strb	r1, [r0]
   6:Core/Src/NOS_BaseColors.c ****     color->G = G;
  36              		.loc 1 6 5 is_stmt 1 view .LVU3
  37              		.loc 1 6 14 is_stmt 0 view .LVU4
  38 0002 4270     		strb	r2, [r0, #1]
   7:Core/Src/NOS_BaseColors.c ****     color->B = B;
  39              		.loc 1 7 5 is_stmt 1 view .LVU5
  40              		.loc 1 7 14 is_stmt 0 view .LVU6
  41 0004 8370     		strb	r3, [r0, #2]
   8:Core/Src/NOS_BaseColors.c **** }
  42              		.loc 1 8 1 view .LVU7
  43 0006 7047     		bx	lr
  44              		.cfi_endproc
  45              	.LFE65:
  47              		.section	.text.NOS_GetBaseColor,"ax",%progbits
  48              		.align	1
  49              		.global	NOS_GetBaseColor
  50              		.syntax unified
  51              		.thumb
ARM GAS  C:\Users\igorn\AppData\Local\Temp\ccA8v2ip.s 			page 2


  52              		.thumb_func
  54              	NOS_GetBaseColor:
  55              	.LVL1:
  56              	.LFB66:
   9:Core/Src/NOS_BaseColors.c **** 
  10:Core/Src/NOS_BaseColors.c **** PixelColor NOS_GetBaseColor(NOS_BaseColors color)
  11:Core/Src/NOS_BaseColors.c **** {
  57              		.loc 1 11 1 is_stmt 1 view -0
  58              		.cfi_startproc
  59              		@ args = 0, pretend = 0, frame = 8
  60              		@ frame_needed = 0, uses_anonymous_args = 0
  61              		.loc 1 11 1 is_stmt 0 view .LVU9
  62 0000 00B5     		push	{lr}
  63              		.cfi_def_cfa_offset 4
  64              		.cfi_offset 14, -4
  65 0002 83B0     		sub	sp, sp, #12
  66              		.cfi_def_cfa_offset 16
  12:Core/Src/NOS_BaseColors.c ****     PixelColor result = {0,0,0};
  67              		.loc 1 12 5 is_stmt 1 view .LVU10
  68              		.loc 1 12 16 is_stmt 0 view .LVU11
  69 0004 0023     		movs	r3, #0
  70 0006 8DF80030 		strb	r3, [sp]
  71 000a 8DF80130 		strb	r3, [sp, #1]
  72 000e 8DF80230 		strb	r3, [sp, #2]
  13:Core/Src/NOS_BaseColors.c ****     
  14:Core/Src/NOS_BaseColors.c ****     switch(color)
  73              		.loc 1 14 5 is_stmt 1 view .LVU12
  74 0012 0B28     		cmp	r0, #11
  75 0014 0DD8     		bhi	.L3
  76 0016 DFE800F0 		tbb	[pc, r0]
  77              	.L5:
  78 001a 06       		.byte	(.L16-.L5)/2
  79 001b 22       		.byte	(.L15-.L5)/2
  80 001c 29       		.byte	(.L14-.L5)/2
  81 001d 30       		.byte	(.L13-.L5)/2
  82 001e 37       		.byte	(.L12-.L5)/2
  83 001f 3E       		.byte	(.L11-.L5)/2
  84 0020 45       		.byte	(.L10-.L5)/2
  85 0021 4C       		.byte	(.L9-.L5)/2
  86 0022 53       		.byte	(.L8-.L5)/2
  87 0023 5A       		.byte	(.L7-.L5)/2
  88 0024 61       		.byte	(.L6-.L5)/2
  89 0025 68       		.byte	(.L4-.L5)/2
  90              		.p2align 1
  91              	.L16:
  15:Core/Src/NOS_BaseColors.c ****     {
  16:Core/Src/NOS_BaseColors.c ****         case BLUE:
  17:Core/Src/NOS_BaseColors.c ****             NOS_PixelColor_SetColor(&result,0x00,0x00,0xFF);
  92              		.loc 1 17 13 view .LVU13
  93 0026 FF23     		movs	r3, #255
  94 0028 0022     		movs	r2, #0
  95 002a 1146     		mov	r1, r2
  96 002c 6846     		mov	r0, sp
  97              	.LVL2:
  98              		.loc 1 17 13 is_stmt 0 view .LVU14
  99 002e FFF7FEFF 		bl	NOS_PixelColor_SetColor
 100              	.LVL3:
ARM GAS  C:\Users\igorn\AppData\Local\Temp\ccA8v2ip.s 			page 3


  18:Core/Src/NOS_BaseColors.c ****         break;
 101              		.loc 1 18 9 is_stmt 1 view .LVU15
 102              	.L3:
  19:Core/Src/NOS_BaseColors.c **** 
  20:Core/Src/NOS_BaseColors.c ****         case OCEAN:
  21:Core/Src/NOS_BaseColors.c ****             NOS_PixelColor_SetColor(&result,0x00,0x7F,0xFF);
  22:Core/Src/NOS_BaseColors.c ****         break;
  23:Core/Src/NOS_BaseColors.c **** 
  24:Core/Src/NOS_BaseColors.c ****         case CYAN:
  25:Core/Src/NOS_BaseColors.c ****             NOS_PixelColor_SetColor(&result,0x00,0xFF,0xFF);
  26:Core/Src/NOS_BaseColors.c ****         break;
  27:Core/Src/NOS_BaseColors.c **** 
  28:Core/Src/NOS_BaseColors.c ****         case TURQUOISE:
  29:Core/Src/NOS_BaseColors.c ****             NOS_PixelColor_SetColor(&result,0x00,0xFF,0x7F);
  30:Core/Src/NOS_BaseColors.c ****         break;
  31:Core/Src/NOS_BaseColors.c **** 
  32:Core/Src/NOS_BaseColors.c ****         case GREEN:
  33:Core/Src/NOS_BaseColors.c ****             NOS_PixelColor_SetColor(&result,0x00,0xFF,0x00);
  34:Core/Src/NOS_BaseColors.c ****         break;
  35:Core/Src/NOS_BaseColors.c **** 
  36:Core/Src/NOS_BaseColors.c ****         case SGREEN:
  37:Core/Src/NOS_BaseColors.c ****             NOS_PixelColor_SetColor(&result,0x7F,0xFF,0x00);
  38:Core/Src/NOS_BaseColors.c ****         break;
  39:Core/Src/NOS_BaseColors.c **** 
  40:Core/Src/NOS_BaseColors.c ****         case YELLOW:
  41:Core/Src/NOS_BaseColors.c ****             NOS_PixelColor_SetColor(&result,0xFF,0xFF,0x00);
  42:Core/Src/NOS_BaseColors.c ****         break;
  43:Core/Src/NOS_BaseColors.c **** 
  44:Core/Src/NOS_BaseColors.c ****         case ORANGE:
  45:Core/Src/NOS_BaseColors.c ****             NOS_PixelColor_SetColor(&result,0xFF,0x7F,0x00);
  46:Core/Src/NOS_BaseColors.c ****         break;
  47:Core/Src/NOS_BaseColors.c **** 
  48:Core/Src/NOS_BaseColors.c ****         case RED:
  49:Core/Src/NOS_BaseColors.c ****             NOS_PixelColor_SetColor(&result,0xFF,0x00,0x00);
  50:Core/Src/NOS_BaseColors.c ****         break;
  51:Core/Src/NOS_BaseColors.c **** 
  52:Core/Src/NOS_BaseColors.c ****         case RASPBERRY:
  53:Core/Src/NOS_BaseColors.c ****             NOS_PixelColor_SetColor(&result,0xFF,0x00,0x7F);
  54:Core/Src/NOS_BaseColors.c ****         break;
  55:Core/Src/NOS_BaseColors.c **** 
  56:Core/Src/NOS_BaseColors.c ****         case MAGENTA:
  57:Core/Src/NOS_BaseColors.c ****             NOS_PixelColor_SetColor(&result,0xFF,0x00,0xFF);
  58:Core/Src/NOS_BaseColors.c ****         break;
  59:Core/Src/NOS_BaseColors.c **** 
  60:Core/Src/NOS_BaseColors.c ****         case VIOLET:
  61:Core/Src/NOS_BaseColors.c ****             NOS_PixelColor_SetColor(&result,0x7F,0x00,0xFF);
  62:Core/Src/NOS_BaseColors.c ****         break;
  63:Core/Src/NOS_BaseColors.c ****         
  64:Core/Src/NOS_BaseColors.c ****     }
  65:Core/Src/NOS_BaseColors.c ****     return result;
 103              		.loc 1 65 5 view .LVU16
 104              		.loc 1 65 12 is_stmt 0 view .LVU17
 105 0032 009B     		ldr	r3, [sp]
 106 0034 ADF80430 		strh	r3, [sp, #4]	@ movhi
 107 0038 1B0C     		lsrs	r3, r3, #16
 108 003a 8DF80630 		strb	r3, [sp, #6]
 109 003e 0020     		movs	r0, #0
ARM GAS  C:\Users\igorn\AppData\Local\Temp\ccA8v2ip.s 			page 4


 110 0040 9DF80430 		ldrb	r3, [sp, #4]	@ zero_extendqisi2
 111 0044 63F30700 		bfi	r0, r3, #0, #8
 112 0048 9DF80530 		ldrb	r3, [sp, #5]	@ zero_extendqisi2
 113 004c 63F30F20 		bfi	r0, r3, #8, #8
 114 0050 9DF80630 		ldrb	r3, [sp, #6]	@ zero_extendqisi2
 115 0054 63F31740 		bfi	r0, r3, #16, #8
  66:Core/Src/NOS_BaseColors.c **** }...
 116              		.loc 1 66 1 view .LVU18
 117 0058 03B0     		add	sp, sp, #12
 118              		.cfi_remember_state
 119              		.cfi_def_cfa_offset 4
 120              		@ sp needed
 121 005a 5DF804FB 		ldr	pc, [sp], #4
 122              	.LVL4:
 123              	.L15:
 124              		.cfi_restore_state
  21:Core/Src/NOS_BaseColors.c ****             NOS_PixelColor_SetColor(&result,0x00,0x7F,0xFF);
 125              		.loc 1 21 13 is_stmt 1 view .LVU19
 126 005e FF23     		movs	r3, #255
 127 0060 7F22     		movs	r2, #127
 128 0062 0021     		movs	r1, #0
 129 0064 6846     		mov	r0, sp
 130              	.LVL5:
  21:Core/Src/NOS_BaseColors.c ****             NOS_PixelColor_SetColor(&result,0x00,0x7F,0xFF);
 131              		.loc 1 21 13 is_stmt 0 view .LVU20
 132 0066 FFF7FEFF 		bl	NOS_PixelColor_SetColor
 133              	.LVL6:
  22:Core/Src/NOS_BaseColors.c ****         break;
 134              		.loc 1 22 9 is_stmt 1 view .LVU21
 135 006a E2E7     		b	.L3
 136              	.LVL7:
 137              	.L14:
  25:Core/Src/NOS_BaseColors.c ****             NOS_PixelColor_SetColor(&result,0x00,0xFF,0xFF);
 138              		.loc 1 25 13 view .LVU22
 139 006c FF23     		movs	r3, #255
 140 006e 1A46     		mov	r2, r3
 141 0070 0021     		movs	r1, #0
 142 0072 6846     		mov	r0, sp
 143              	.LVL8:
  25:Core/Src/NOS_BaseColors.c ****             NOS_PixelColor_SetColor(&result,0x00,0xFF,0xFF);
 144              		.loc 1 25 13 is_stmt 0 view .LVU23
 145 0074 FFF7FEFF 		bl	NOS_PixelColor_SetColor
 146              	.LVL9:
  26:Core/Src/NOS_BaseColors.c ****         break;
 147              		.loc 1 26 9 is_stmt 1 view .LVU24
 148 0078 DBE7     		b	.L3
 149              	.LVL10:
 150              	.L13:
  29:Core/Src/NOS_BaseColors.c ****             NOS_PixelColor_SetColor(&result,0x00,0xFF,0x7F);
 151              		.loc 1 29 13 view .LVU25
 152 007a 7F23     		movs	r3, #127
 153 007c FF22     		movs	r2, #255
 154 007e 0021     		movs	r1, #0
 155 0080 6846     		mov	r0, sp
 156              	.LVL11:
  29:Core/Src/NOS_BaseColors.c ****             NOS_PixelColor_SetColor(&result,0x00,0xFF,0x7F);
 157              		.loc 1 29 13 is_stmt 0 view .LVU26
ARM GAS  C:\Users\igorn\AppData\Local\Temp\ccA8v2ip.s 			page 5


 158 0082 FFF7FEFF 		bl	NOS_PixelColor_SetColor
 159              	.LVL12:
  30:Core/Src/NOS_BaseColors.c ****         break;
 160              		.loc 1 30 9 is_stmt 1 view .LVU27
 161 0086 D4E7     		b	.L3
 162              	.LVL13:
 163              	.L12:
  33:Core/Src/NOS_BaseColors.c ****             NOS_PixelColor_SetColor(&result,0x00,0xFF,0x00);
 164              		.loc 1 33 13 view .LVU28
 165 0088 0023     		movs	r3, #0
 166 008a FF22     		movs	r2, #255
 167 008c 1946     		mov	r1, r3
 168 008e 6846     		mov	r0, sp
 169              	.LVL14:
  33:Core/Src/NOS_BaseColors.c ****             NOS_PixelColor_SetColor(&result,0x00,0xFF,0x00);
 170              		.loc 1 33 13 is_stmt 0 view .LVU29
 171 0090 FFF7FEFF 		bl	NOS_PixelColor_SetColor
 172              	.LVL15:
  34:Core/Src/NOS_BaseColors.c ****         break;
 173              		.loc 1 34 9 is_stmt 1 view .LVU30
 174 0094 CDE7     		b	.L3
 175              	.LVL16:
 176              	.L11:
  37:Core/Src/NOS_BaseColors.c ****             NOS_PixelColor_SetColor(&result,0x7F,0xFF,0x00);
 177              		.loc 1 37 13 view .LVU31
 178 0096 0023     		movs	r3, #0
 179 0098 FF22     		movs	r2, #255
 180 009a 7F21     		movs	r1, #127
 181 009c 6846     		mov	r0, sp
 182              	.LVL17:
  37:Core/Src/NOS_BaseColors.c ****             NOS_PixelColor_SetColor(&result,0x7F,0xFF,0x00);
 183              		.loc 1 37 13 is_stmt 0 view .LVU32
 184 009e FFF7FEFF 		bl	NOS_PixelColor_SetColor
 185              	.LVL18:
  38:Core/Src/NOS_BaseColors.c ****         break;
 186              		.loc 1 38 9 is_stmt 1 view .LVU33
 187 00a2 C6E7     		b	.L3
 188              	.LVL19:
 189              	.L10:
  41:Core/Src/NOS_BaseColors.c ****             NOS_PixelColor_SetColor(&result,0xFF,0xFF,0x00);
 190              		.loc 1 41 13 view .LVU34
 191 00a4 0023     		movs	r3, #0
 192 00a6 FF22     		movs	r2, #255
 193 00a8 1146     		mov	r1, r2
 194 00aa 6846     		mov	r0, sp
 195              	.LVL20:
  41:Core/Src/NOS_BaseColors.c ****             NOS_PixelColor_SetColor(&result,0xFF,0xFF,0x00);
 196              		.loc 1 41 13 is_stmt 0 view .LVU35
 197 00ac FFF7FEFF 		bl	NOS_PixelColor_SetColor
 198              	.LVL21:
  42:Core/Src/NOS_BaseColors.c ****         break;
 199              		.loc 1 42 9 is_stmt 1 view .LVU36
 200 00b0 BFE7     		b	.L3
 201              	.LVL22:
 202              	.L9:
  45:Core/Src/NOS_BaseColors.c ****             NOS_PixelColor_SetColor(&result,0xFF,0x7F,0x00);
 203              		.loc 1 45 13 view .LVU37
ARM GAS  C:\Users\igorn\AppData\Local\Temp\ccA8v2ip.s 			page 6


 204 00b2 0023     		movs	r3, #0
 205 00b4 7F22     		movs	r2, #127
 206 00b6 FF21     		movs	r1, #255
 207 00b8 6846     		mov	r0, sp
 208              	.LVL23:
  45:Core/Src/NOS_BaseColors.c ****             NOS_PixelColor_SetColor(&result,0xFF,0x7F,0x00);
 209              		.loc 1 45 13 is_stmt 0 view .LVU38
 210 00ba FFF7FEFF 		bl	NOS_PixelColor_SetColor
 211              	.LVL24:
  46:Core/Src/NOS_BaseColors.c ****         break;
 212              		.loc 1 46 9 is_stmt 1 view .LVU39
 213 00be B8E7     		b	.L3
 214              	.LVL25:
 215              	.L8:
  49:Core/Src/NOS_BaseColors.c ****             NOS_PixelColor_SetColor(&result,0xFF,0x00,0x00);
 216              		.loc 1 49 13 view .LVU40
 217 00c0 0023     		movs	r3, #0
 218 00c2 1A46     		mov	r2, r3
 219 00c4 FF21     		movs	r1, #255
 220 00c6 6846     		mov	r0, sp
 221              	.LVL26:
  49:Core/Src/NOS_BaseColors.c ****             NOS_PixelColor_SetColor(&result,0xFF,0x00,0x00);
 222              		.loc 1 49 13 is_stmt 0 view .LVU41
 223 00c8 FFF7FEFF 		bl	NOS_PixelColor_SetColor
 224              	.LVL27:
  50:Core/Src/NOS_BaseColors.c ****         break;
 225              		.loc 1 50 9 is_stmt 1 view .LVU42
 226 00cc B1E7     		b	.L3
 227              	.LVL28:
 228              	.L7:
  53:Core/Src/NOS_BaseColors.c ****             NOS_PixelColor_SetColor(&result,0xFF,0x00,0x7F);
 229              		.loc 1 53 13 view .LVU43
 230 00ce 7F23     		movs	r3, #127
 231 00d0 0022     		movs	r2, #0
 232 00d2 FF21     		movs	r1, #255
 233 00d4 6846     		mov	r0, sp
 234              	.LVL29:
  53:Core/Src/NOS_BaseColors.c ****             NOS_PixelColor_SetColor(&result,0xFF,0x00,0x7F);
 235              		.loc 1 53 13 is_stmt 0 view .LVU44
 236 00d6 FFF7FEFF 		bl	NOS_PixelColor_SetColor
 237              	.LVL30:
  54:Core/Src/NOS_BaseColors.c ****         break;
 238              		.loc 1 54 9 is_stmt 1 view .LVU45
 239 00da AAE7     		b	.L3
 240              	.LVL31:
 241              	.L6:
  57:Core/Src/NOS_BaseColors.c ****             NOS_PixelColor_SetColor(&result,0xFF,0x00,0xFF);
 242              		.loc 1 57 13 view .LVU46
 243 00dc FF23     		movs	r3, #255
 244 00de 0022     		movs	r2, #0
 245 00e0 1946     		mov	r1, r3
 246 00e2 6846     		mov	r0, sp
 247              	.LVL32:
  57:Core/Src/NOS_BaseColors.c ****             NOS_PixelColor_SetColor(&result,0xFF,0x00,0xFF);
 248              		.loc 1 57 13 is_stmt 0 view .LVU47
 249 00e4 FFF7FEFF 		bl	NOS_PixelColor_SetColor
 250              	.LVL33:
ARM GAS  C:\Users\igorn\AppData\Local\Temp\ccA8v2ip.s 			page 7


  58:Core/Src/NOS_BaseColors.c ****         break;
 251              		.loc 1 58 9 is_stmt 1 view .LVU48
 252 00e8 A3E7     		b	.L3
 253              	.LVL34:
 254              	.L4:
  61:Core/Src/NOS_BaseColors.c ****             NOS_PixelColor_SetColor(&result,0x7F,0x00,0xFF);
 255              		.loc 1 61 13 view .LVU49
 256 00ea FF23     		movs	r3, #255
 257 00ec 0022     		movs	r2, #0
 258 00ee 7F21     		movs	r1, #127
 259 00f0 6846     		mov	r0, sp
 260              	.LVL35:
  61:Core/Src/NOS_BaseColors.c ****             NOS_PixelColor_SetColor(&result,0x7F,0x00,0xFF);
 261              		.loc 1 61 13 is_stmt 0 view .LVU50
 262 00f2 FFF7FEFF 		bl	NOS_PixelColor_SetColor
 263              	.LVL36:
  62:Core/Src/NOS_BaseColors.c ****         break;
 264              		.loc 1 62 9 is_stmt 1 view .LVU51
 265 00f6 9CE7     		b	.L3
 266              		.cfi_endproc
 267              	.LFE66:
 269              		.text
 270              	.Letext0:
 271              		.file 2 "c:\\users\\igorn\\appdata\\roaming\\code\\user\\globalstorage\\bmd.stm32-for-vscode\\@xpa
 272              		.file 3 "c:\\users\\igorn\\appdata\\roaming\\code\\user\\globalstorage\\bmd.stm32-for-vscode\\@xpa
 273              		.file 4 "Core/Inc/NOS_Typedefs.h"
 274              		.file 5 "Core/Inc/NOS_BaseColors.h"
ARM GAS  C:\Users\igorn\AppData\Local\Temp\ccA8v2ip.s 			page 8

