ARM GAS  C:\Users\igorn\AppData\Local\Temp\ccCzUKZG.s 			page 1


   1              		.cpu cortex-m3
   2              		.arch armv7-m
   3              		.fpu softvfp
   4              		.eabi_attribute 20, 1
   5              		.eabi_attribute 21, 1
   6              		.eabi_attribute 23, 3
   7              		.eabi_attribute 24, 1
   8              		.eabi_attribute 25, 1
   9              		.eabi_attribute 26, 1
  10              		.eabi_attribute 30, 1
  11              		.eabi_attribute 34, 1
  12              		.eabi_attribute 18, 4
  13              		.file	"WS2812B_Effects.c"
  14              		.text
  15              	.Ltext0:
  16              		.cfi_sections	.debug_frame
  17              		.file 1 "Core/Src/WS2812B_Effects.c"
  18              		.section	.text.Wheel,"ax",%progbits
  19              		.align	1
  20              		.global	Wheel
  21              		.syntax unified
  22              		.thumb
  23              		.thumb_func
  25              	Wheel:
  26              	.LVL0:
  27              	.LFB65:
   1:Core/Src/WS2812B_Effects.c **** /*
   2:Core/Src/WS2812B_Effects.c **** 
   3:Core/Src/WS2812B_Effects.c ****   WS2812B CPU and memory efficient library
   4:Core/Src/WS2812B_Effects.c **** 
   5:Core/Src/WS2812B_Effects.c ****   Date: 28.9.2016
   6:Core/Src/WS2812B_Effects.c **** 
   7:Core/Src/WS2812B_Effects.c ****   Author: Martin Hubacek
   8:Core/Src/WS2812B_Effects.c ****   	  	  http://www.martinhubacek.cz
   9:Core/Src/WS2812B_Effects.c ****   	  	  @hubmartin
  10:Core/Src/WS2812B_Effects.c **** 
  11:Core/Src/WS2812B_Effects.c ****   Licence: MIT License
  12:Core/Src/WS2812B_Effects.c **** 
  13:Core/Src/WS2812B_Effects.c **** */
  14:Core/Src/WS2812B_Effects.c **** 
  15:Core/Src/WS2812B_Effects.c **** #include <stdint.h>
  16:Core/Src/WS2812B_Effects.c **** 
  17:Core/Src/WS2812B_Effects.c **** #include "stm32f1xx_hal.h"
  18:Core/Src/WS2812B_Effects.c **** #include "WS2812B_Core.h"
  19:Core/Src/WS2812B_Effects.c **** #include <stdlib.h>
  20:Core/Src/WS2812B_Effects.c **** 
  21:Core/Src/WS2812B_Effects.c **** extern WS2812_Struct ws2812b;
  22:Core/Src/WS2812B_Effects.c **** // RGB Framebuffers
  23:Core/Src/WS2812B_Effects.c **** uint8_t frameBuffer1[3*256];
  24:Core/Src/WS2812B_Effects.c **** uint8_t frameBuffer2[3*256];
  25:Core/Src/WS2812B_Effects.c **** uint8_t frameBuffer3[3*256];
  26:Core/Src/WS2812B_Effects.c **** 
  27:Core/Src/WS2812B_Effects.c **** // Helper defines
  28:Core/Src/WS2812B_Effects.c **** #define newColor(r, g, b) (((uint32_t)(r) << 16) | ((uint32_t)(g) <<  8) | (b))
  29:Core/Src/WS2812B_Effects.c **** #define Red(c) ((uint8_t)((c >> 16) & 0xFF))
  30:Core/Src/WS2812B_Effects.c **** #define Green(c) ((uint8_t)((c >> 8) & 0xFF))
  31:Core/Src/WS2812B_Effects.c **** #define Blue(c) ((uint8_t)(c & 0xFF))
ARM GAS  C:\Users\igorn\AppData\Local\Temp\ccCzUKZG.s 			page 2


  32:Core/Src/WS2812B_Effects.c **** 
  33:Core/Src/WS2812B_Effects.c **** 
  34:Core/Src/WS2812B_Effects.c **** uint32_t Wheel(uint8_t WheelPos) {
  28              		.loc 1 34 34 view -0
  29              		.cfi_startproc
  30              		@ args = 0, pretend = 0, frame = 0
  31              		@ frame_needed = 0, uses_anonymous_args = 0
  32              		@ link register save eliminated.
  35:Core/Src/WS2812B_Effects.c ****   WheelPos = 255 - WheelPos;
  33              		.loc 1 35 3 view .LVU1
  34              		.loc 1 35 12 is_stmt 0 view .LVU2
  35 0000 C343     		mvns	r3, r0
  36 0002 DBB2     		uxtb	r3, r3
  37              	.LVL1:
  36:Core/Src/WS2812B_Effects.c ****   if(WheelPos < 85) {
  38              		.loc 1 36 3 is_stmt 1 view .LVU3
  39              		.loc 1 36 5 is_stmt 0 view .LVU4
  40 0004 542B     		cmp	r3, #84
  41 0006 0CD9     		bls	.L5
  37:Core/Src/WS2812B_Effects.c ****     return newColor(255 - WheelPos * 3, 0, WheelPos * 3);
  38:Core/Src/WS2812B_Effects.c ****   }
  39:Core/Src/WS2812B_Effects.c ****   if(WheelPos < 170) {
  42              		.loc 1 39 3 is_stmt 1 view .LVU5
  43              		.loc 1 39 5 is_stmt 0 view .LVU6
  44 0008 A92B     		cmp	r3, #169
  45 000a 12D9     		bls	.L6
  40:Core/Src/WS2812B_Effects.c ****     WheelPos -= 85;
  41:Core/Src/WS2812B_Effects.c ****     return newColor(0, WheelPos * 3, 255 - WheelPos * 3);
  42:Core/Src/WS2812B_Effects.c ****   }
  43:Core/Src/WS2812B_Effects.c ****   WheelPos -= 170;
  46              		.loc 1 43 3 is_stmt 1 view .LVU7
  47              		.loc 1 43 12 is_stmt 0 view .LVU8
  48 000c C0F15503 		rsb	r3, r0, #85
  49              	.LVL2:
  50              		.loc 1 43 12 view .LVU9
  51 0010 DBB2     		uxtb	r3, r3
  52              	.LVL3:
  44:Core/Src/WS2812B_Effects.c ****   return newColor(WheelPos * 3, 255 - WheelPos * 3, 0);
  53              		.loc 1 44 3 is_stmt 1 view .LVU10
  54              		.loc 1 44 10 is_stmt 0 view .LVU11
  55 0012 03EB4303 		add	r3, r3, r3, lsl #1
  56              	.LVL4:
  57              		.loc 1 44 10 view .LVU12
  58 0016 C3F1FF00 		rsb	r0, r3, #255
  59              	.LVL5:
  60              		.loc 1 44 10 view .LVU13
  61 001a 0002     		lsls	r0, r0, #8
  62 001c 40EA0340 		orr	r0, r0, r3, lsl #16
  45:Core/Src/WS2812B_Effects.c **** }
  63              		.loc 1 45 1 view .LVU14
  64 0020 7047     		bx	lr
  65              	.LVL6:
  66              	.L5:
  37:Core/Src/WS2812B_Effects.c ****   }
  67              		.loc 1 37 5 is_stmt 1 view .LVU15
  37:Core/Src/WS2812B_Effects.c ****   }
  68              		.loc 1 37 12 is_stmt 0 view .LVU16
ARM GAS  C:\Users\igorn\AppData\Local\Temp\ccCzUKZG.s 			page 3


  69 0022 A3EB8303 		sub	r3, r3, r3, lsl #2
  70              	.LVL7:
  37:Core/Src/WS2812B_Effects.c ****   }
  71              		.loc 1 37 12 view .LVU17
  72 0026 03F1FF02 		add	r2, r3, #255
  73 002a 5B42     		rsbs	r3, r3, #0
  74 002c 43EA0240 		orr	r0, r3, r2, lsl #16
  75              	.LVL8:
  37:Core/Src/WS2812B_Effects.c ****   }
  76              		.loc 1 37 12 view .LVU18
  77 0030 7047     		bx	lr
  78              	.LVL9:
  79              	.L6:
  40:Core/Src/WS2812B_Effects.c ****     return newColor(0, WheelPos * 3, 255 - WheelPos * 3);
  80              		.loc 1 40 5 is_stmt 1 view .LVU19
  40:Core/Src/WS2812B_Effects.c ****     return newColor(0, WheelPos * 3, 255 - WheelPos * 3);
  81              		.loc 1 40 14 is_stmt 0 view .LVU20
  82 0032 C0F1AA03 		rsb	r3, r0, #170
  83              	.LVL10:
  40:Core/Src/WS2812B_Effects.c ****     return newColor(0, WheelPos * 3, 255 - WheelPos * 3);
  84              		.loc 1 40 14 view .LVU21
  85 0036 DBB2     		uxtb	r3, r3
  86              	.LVL11:
  41:Core/Src/WS2812B_Effects.c ****   }
  87              		.loc 1 41 5 is_stmt 1 view .LVU22
  41:Core/Src/WS2812B_Effects.c ****   }
  88              		.loc 1 41 12 is_stmt 0 view .LVU23
  89 0038 03EB4303 		add	r3, r3, r3, lsl #1
  90              	.LVL12:
  41:Core/Src/WS2812B_Effects.c ****   }
  91              		.loc 1 41 12 view .LVU24
  92 003c C3F1FF00 		rsb	r0, r3, #255
  93              	.LVL13:
  41:Core/Src/WS2812B_Effects.c ****   }
  94              		.loc 1 41 12 view .LVU25
  95 0040 40EA0320 		orr	r0, r0, r3, lsl #8
  96 0044 7047     		bx	lr
  97              		.cfi_endproc
  98              	.LFE65:
 100              		.section	.text.visRainbow,"ax",%progbits
 101              		.align	1
 102              		.global	visRainbow
 103              		.syntax unified
 104              		.thumb
 105              		.thumb_func
 107              	visRainbow:
 108              	.LVL14:
 109              	.LFB66:
  46:Core/Src/WS2812B_Effects.c **** 
  47:Core/Src/WS2812B_Effects.c **** 
  48:Core/Src/WS2812B_Effects.c **** 
  49:Core/Src/WS2812B_Effects.c **** 
  50:Core/Src/WS2812B_Effects.c **** void visRainbow(uint8_t *frameBuffer, uint32_t frameBufferSize, uint32_t effectLength)
  51:Core/Src/WS2812B_Effects.c **** {
 110              		.loc 1 51 1 is_stmt 1 view -0
 111              		.cfi_startproc
 112              		@ args = 0, pretend = 0, frame = 0
ARM GAS  C:\Users\igorn\AppData\Local\Temp\ccCzUKZG.s 			page 4


 113              		@ frame_needed = 0, uses_anonymous_args = 0
 114              		.loc 1 51 1 is_stmt 0 view .LVU27
 115 0000 2DE9F041 		push	{r4, r5, r6, r7, r8, lr}
 116              		.cfi_def_cfa_offset 24
 117              		.cfi_offset 4, -24
 118              		.cfi_offset 5, -20
 119              		.cfi_offset 6, -16
 120              		.cfi_offset 7, -12
 121              		.cfi_offset 8, -8
 122              		.cfi_offset 14, -4
 123 0004 0546     		mov	r5, r0
 124 0006 0F46     		mov	r7, r1
 125 0008 9046     		mov	r8, r2
  52:Core/Src/WS2812B_Effects.c **** 	uint32_t i;
 126              		.loc 1 52 2 is_stmt 1 view .LVU28
  53:Core/Src/WS2812B_Effects.c **** 	static uint8_t x = 0;
 127              		.loc 1 53 2 view .LVU29
  54:Core/Src/WS2812B_Effects.c **** 
  55:Core/Src/WS2812B_Effects.c **** 	x += 1;
 128              		.loc 1 55 2 view .LVU30
 129              		.loc 1 55 4 is_stmt 0 view .LVU31
 130 000a 104B     		ldr	r3, .L11
 131 000c 1E78     		ldrb	r6, [r3]	@ zero_extendqisi2
 132 000e 0136     		adds	r6, r6, #1
 133 0010 F6B2     		uxtb	r6, r6
 134 0012 1E70     		strb	r6, [r3]
  56:Core/Src/WS2812B_Effects.c **** 
  57:Core/Src/WS2812B_Effects.c **** 	if(x == 256*5)
 135              		.loc 1 57 2 is_stmt 1 view .LVU32
  58:Core/Src/WS2812B_Effects.c **** 		x = 0;
  59:Core/Src/WS2812B_Effects.c **** 
  60:Core/Src/WS2812B_Effects.c **** 	for( i = 0; i < frameBufferSize / 3; i++)
 136              		.loc 1 60 2 view .LVU33
 137              	.LVL15:
 138              		.loc 1 60 9 is_stmt 0 view .LVU34
 139 0014 0024     		movs	r4, #0
 140              		.loc 1 60 2 view .LVU35
 141 0016 10E0     		b	.L8
 142              	.LVL16:
 143              	.L9:
 144              	.LBB2:
  61:Core/Src/WS2812B_Effects.c **** 	{
  62:Core/Src/WS2812B_Effects.c **** 		uint32_t color = Wheel(((i * 256) / effectLength + x) & 0xFF);
 145              		.loc 1 62 3 is_stmt 1 discriminator 3 view .LVU36
 146              		.loc 1 62 30 is_stmt 0 discriminator 3 view .LVU37
 147 0018 2002     		lsls	r0, r4, #8
 148              		.loc 1 62 37 discriminator 3 view .LVU38
 149 001a B0FBF8F0 		udiv	r0, r0, r8
 150              		.loc 1 62 20 discriminator 3 view .LVU39
 151 001e 3044     		add	r0, r0, r6
 152 0020 C0B2     		uxtb	r0, r0
 153 0022 FFF7FEFF 		bl	Wheel
 154              	.LVL17:
  63:Core/Src/WS2812B_Effects.c **** 
  64:Core/Src/WS2812B_Effects.c **** 		frameBuffer[i*3 + 0] = color & 0xFF;
 155              		.loc 1 64 3 is_stmt 1 discriminator 3 view .LVU40
 156              		.loc 1 64 16 is_stmt 0 discriminator 3 view .LVU41
ARM GAS  C:\Users\igorn\AppData\Local\Temp\ccCzUKZG.s 			page 5


 157 0026 04EB4403 		add	r3, r4, r4, lsl #1
 158              		.loc 1 64 24 discriminator 3 view .LVU42
 159 002a E854     		strb	r0, [r5, r3]
  65:Core/Src/WS2812B_Effects.c **** 		frameBuffer[i*3 + 1] = color >> 8 & 0xFF;
 160              		.loc 1 65 3 is_stmt 1 discriminator 3 view .LVU43
 161              		.loc 1 65 32 is_stmt 0 discriminator 3 view .LVU44
 162 002c 010A     		lsrs	r1, r0, #8
 163              		.loc 1 65 14 discriminator 3 view .LVU45
 164 002e 5A1C     		adds	r2, r3, #1
 165              		.loc 1 65 24 discriminator 3 view .LVU46
 166 0030 A954     		strb	r1, [r5, r2]
  66:Core/Src/WS2812B_Effects.c **** 		frameBuffer[i*3 + 2] = color >> 16 & 0xFF;
 167              		.loc 1 66 3 is_stmt 1 discriminator 3 view .LVU47
 168              		.loc 1 66 32 is_stmt 0 discriminator 3 view .LVU48
 169 0032 000C     		lsrs	r0, r0, #16
 170              	.LVL18:
 171              		.loc 1 66 14 discriminator 3 view .LVU49
 172 0034 0233     		adds	r3, r3, #2
 173              		.loc 1 66 24 discriminator 3 view .LVU50
 174 0036 E854     		strb	r0, [r5, r3]
 175              	.LBE2:
  60:Core/Src/WS2812B_Effects.c **** 	{
 176              		.loc 1 60 40 is_stmt 1 discriminator 3 view .LVU51
 177 0038 0134     		adds	r4, r4, #1
 178              	.LVL19:
 179              	.L8:
  60:Core/Src/WS2812B_Effects.c **** 	{
 180              		.loc 1 60 16 discriminator 1 view .LVU52
  60:Core/Src/WS2812B_Effects.c **** 	{
 181              		.loc 1 60 34 is_stmt 0 discriminator 1 view .LVU53
 182 003a 054B     		ldr	r3, .L11+4
 183 003c A3FB0723 		umull	r2, r3, r3, r7
  60:Core/Src/WS2812B_Effects.c **** 	{
 184              		.loc 1 60 16 discriminator 1 view .LVU54
 185 0040 B4EB530F 		cmp	r4, r3, lsr #1
 186 0044 E8D3     		bcc	.L9
  67:Core/Src/WS2812B_Effects.c **** 	}
  68:Core/Src/WS2812B_Effects.c **** }
 187              		.loc 1 68 1 view .LVU55
 188 0046 BDE8F081 		pop	{r4, r5, r6, r7, r8, pc}
 189              	.LVL20:
 190              	.L12:
 191              		.loc 1 68 1 view .LVU56
 192 004a 00BF     		.align	2
 193              	.L11:
 194 004c 00000000 		.word	x.0
 195 0050 ABAAAAAA 		.word	-1431655765
 196              		.cfi_endproc
 197              	.LFE66:
 199              		.section	.text.visDots,"ax",%progbits
 200              		.align	1
 201              		.global	visDots
 202              		.syntax unified
 203              		.thumb
 204              		.thumb_func
 206              	visDots:
 207              	.LVL21:
ARM GAS  C:\Users\igorn\AppData\Local\Temp\ccCzUKZG.s 			page 6


 208              	.LFB67:
  69:Core/Src/WS2812B_Effects.c **** 
  70:Core/Src/WS2812B_Effects.c **** 
  71:Core/Src/WS2812B_Effects.c **** void visDots(uint8_t *frameBuffer, uint32_t frameBufferSize, uint32_t random, uint32_t fadeOutFacto
  72:Core/Src/WS2812B_Effects.c **** {
 209              		.loc 1 72 1 is_stmt 1 view -0
 210              		.cfi_startproc
 211              		@ args = 0, pretend = 0, frame = 0
 212              		@ frame_needed = 0, uses_anonymous_args = 0
 213              		.loc 1 72 1 is_stmt 0 view .LVU58
 214 0000 2DE9F041 		push	{r4, r5, r6, r7, r8, lr}
 215              		.cfi_def_cfa_offset 24
 216              		.cfi_offset 4, -24
 217              		.cfi_offset 5, -20
 218              		.cfi_offset 6, -16
 219              		.cfi_offset 7, -12
 220              		.cfi_offset 8, -8
 221              		.cfi_offset 14, -4
 222 0004 0446     		mov	r4, r0
 223 0006 8846     		mov	r8, r1
 224 0008 1746     		mov	r7, r2
 225 000a 1E46     		mov	r6, r3
  73:Core/Src/WS2812B_Effects.c **** 	uint32_t i;
 226              		.loc 1 73 2 is_stmt 1 view .LVU59
  74:Core/Src/WS2812B_Effects.c **** 
  75:Core/Src/WS2812B_Effects.c **** 	for( i = 0; i < frameBufferSize / 3; i++)
 227              		.loc 1 75 2 view .LVU60
 228              	.LVL22:
 229              		.loc 1 75 9 is_stmt 0 view .LVU61
 230 000c 0025     		movs	r5, #0
 231              		.loc 1 75 2 view .LVU62
 232 000e 0AE0     		b	.L14
 233              	.LVL23:
 234              	.L16:
  76:Core/Src/WS2812B_Effects.c **** 	{
  77:Core/Src/WS2812B_Effects.c **** 
  78:Core/Src/WS2812B_Effects.c **** 		if(rand() % random == 0)
  79:Core/Src/WS2812B_Effects.c **** 		{
  80:Core/Src/WS2812B_Effects.c **** 			frameBuffer[i*3 + 0] = 255;
  81:Core/Src/WS2812B_Effects.c **** 			frameBuffer[i*3 + 1] = 255;
  82:Core/Src/WS2812B_Effects.c **** 			frameBuffer[i*3 + 2] = 255;
  83:Core/Src/WS2812B_Effects.c **** 		}
  84:Core/Src/WS2812B_Effects.c **** 
  85:Core/Src/WS2812B_Effects.c **** 
  86:Core/Src/WS2812B_Effects.c **** 		if(frameBuffer[i*3 + 0] > fadeOutFactor)
  87:Core/Src/WS2812B_Effects.c **** 			frameBuffer[i*3 + 0] -= frameBuffer[i*3 + 0]/fadeOutFactor;
  88:Core/Src/WS2812B_Effects.c **** 		else
  89:Core/Src/WS2812B_Effects.c **** 			frameBuffer[i*3 + 0] = 0;
 235              		.loc 1 89 4 is_stmt 1 view .LVU63
 236              		.loc 1 89 25 is_stmt 0 view .LVU64
 237 0010 0023     		movs	r3, #0
 238 0012 04F80C30 		strb	r3, [r4, ip]
 239 0016 26E0     		b	.L17
 240              	.L18:
  90:Core/Src/WS2812B_Effects.c **** 
  91:Core/Src/WS2812B_Effects.c **** 		if(frameBuffer[i*3 + 1] > fadeOutFactor)
  92:Core/Src/WS2812B_Effects.c **** 			frameBuffer[i*3 + 1] -= frameBuffer[i*3 + 1]/fadeOutFactor;
ARM GAS  C:\Users\igorn\AppData\Local\Temp\ccCzUKZG.s 			page 7


  93:Core/Src/WS2812B_Effects.c **** 		else
  94:Core/Src/WS2812B_Effects.c **** 			frameBuffer[i*3 + 1] = 0;
 241              		.loc 1 94 4 is_stmt 1 view .LVU65
 242              		.loc 1 94 25 is_stmt 0 view .LVU66
 243 0018 0023     		movs	r3, #0
 244 001a A354     		strb	r3, [r4, r2]
 245 001c 2CE0     		b	.L19
 246              	.L20:
  95:Core/Src/WS2812B_Effects.c **** 
  96:Core/Src/WS2812B_Effects.c **** 		if(frameBuffer[i*3 + 2] > fadeOutFactor)
  97:Core/Src/WS2812B_Effects.c **** 			frameBuffer[i*3 + 2] -= frameBuffer[i*3 + 2]/fadeOutFactor;
  98:Core/Src/WS2812B_Effects.c **** 		else
  99:Core/Src/WS2812B_Effects.c **** 			frameBuffer[i*3 + 2] = 0;
 247              		.loc 1 99 4 is_stmt 1 view .LVU67
 248              		.loc 1 99 25 is_stmt 0 view .LVU68
 249 001e 0023     		movs	r3, #0
 250 0020 04F80C30 		strb	r3, [r4, ip]
 251              	.L21:
  75:Core/Src/WS2812B_Effects.c **** 	{
 252              		.loc 1 75 40 is_stmt 1 discriminator 2 view .LVU69
 253 0024 0135     		adds	r5, r5, #1
 254              	.LVL24:
 255              	.L14:
  75:Core/Src/WS2812B_Effects.c **** 	{
 256              		.loc 1 75 16 discriminator 1 view .LVU70
  75:Core/Src/WS2812B_Effects.c **** 	{
 257              		.loc 1 75 34 is_stmt 0 discriminator 1 view .LVU71
 258 0026 1B4B     		ldr	r3, .L25
 259 0028 A3FB0823 		umull	r2, r3, r3, r8
  75:Core/Src/WS2812B_Effects.c **** 	{
 260              		.loc 1 75 16 discriminator 1 view .LVU72
 261 002c B5EB530F 		cmp	r5, r3, lsr #1
 262 0030 2ED2     		bcs	.L24
  78:Core/Src/WS2812B_Effects.c **** 		{
 263              		.loc 1 78 3 is_stmt 1 view .LVU73
  78:Core/Src/WS2812B_Effects.c **** 		{
 264              		.loc 1 78 6 is_stmt 0 view .LVU74
 265 0032 FFF7FEFF 		bl	rand
 266              	.LVL25:
  78:Core/Src/WS2812B_Effects.c **** 		{
 267              		.loc 1 78 13 view .LVU75
 268 0036 B0FBF7F3 		udiv	r3, r0, r7
 269 003a 07FB1300 		mls	r0, r7, r3, r0
  78:Core/Src/WS2812B_Effects.c **** 		{
 270              		.loc 1 78 5 view .LVU76
 271 003e 38B9     		cbnz	r0, .L15
  80:Core/Src/WS2812B_Effects.c **** 			frameBuffer[i*3 + 1] = 255;
 272              		.loc 1 80 4 is_stmt 1 view .LVU77
  80:Core/Src/WS2812B_Effects.c **** 			frameBuffer[i*3 + 1] = 255;
 273              		.loc 1 80 17 is_stmt 0 view .LVU78
 274 0040 05EB4503 		add	r3, r5, r5, lsl #1
  80:Core/Src/WS2812B_Effects.c **** 			frameBuffer[i*3 + 1] = 255;
 275              		.loc 1 80 25 view .LVU79
 276 0044 FF22     		movs	r2, #255
 277 0046 E254     		strb	r2, [r4, r3]
  81:Core/Src/WS2812B_Effects.c **** 			frameBuffer[i*3 + 2] = 255;
 278              		.loc 1 81 4 is_stmt 1 view .LVU80
ARM GAS  C:\Users\igorn\AppData\Local\Temp\ccCzUKZG.s 			page 8


  81:Core/Src/WS2812B_Effects.c **** 			frameBuffer[i*3 + 2] = 255;
 279              		.loc 1 81 15 is_stmt 0 view .LVU81
 280 0048 591C     		adds	r1, r3, #1
  81:Core/Src/WS2812B_Effects.c **** 			frameBuffer[i*3 + 2] = 255;
 281              		.loc 1 81 25 view .LVU82
 282 004a 6254     		strb	r2, [r4, r1]
  82:Core/Src/WS2812B_Effects.c **** 		}
 283              		.loc 1 82 4 is_stmt 1 view .LVU83
  82:Core/Src/WS2812B_Effects.c **** 		}
 284              		.loc 1 82 15 is_stmt 0 view .LVU84
 285 004c 0233     		adds	r3, r3, #2
  82:Core/Src/WS2812B_Effects.c **** 		}
 286              		.loc 1 82 25 view .LVU85
 287 004e E254     		strb	r2, [r4, r3]
 288              	.L15:
  86:Core/Src/WS2812B_Effects.c **** 			frameBuffer[i*3 + 0] -= frameBuffer[i*3 + 0]/fadeOutFactor;
 289              		.loc 1 86 3 is_stmt 1 view .LVU86
  86:Core/Src/WS2812B_Effects.c **** 			frameBuffer[i*3 + 0] -= frameBuffer[i*3 + 0]/fadeOutFactor;
 290              		.loc 1 86 19 is_stmt 0 view .LVU87
 291 0050 05EB450C 		add	ip, r5, r5, lsl #1
  86:Core/Src/WS2812B_Effects.c **** 			frameBuffer[i*3 + 0] -= frameBuffer[i*3 + 0]/fadeOutFactor;
 292              		.loc 1 86 17 view .LVU88
 293 0054 14F80C30 		ldrb	r3, [r4, ip]	@ zero_extendqisi2
  86:Core/Src/WS2812B_Effects.c **** 			frameBuffer[i*3 + 0] -= frameBuffer[i*3 + 0]/fadeOutFactor;
 294              		.loc 1 86 5 view .LVU89
 295 0058 B342     		cmp	r3, r6
 296 005a D9D9     		bls	.L16
  87:Core/Src/WS2812B_Effects.c **** 		else
 297              		.loc 1 87 4 is_stmt 1 view .LVU90
  87:Core/Src/WS2812B_Effects.c **** 		else
 298              		.loc 1 87 48 is_stmt 0 view .LVU91
 299 005c B3FBF6F2 		udiv	r2, r3, r6
  87:Core/Src/WS2812B_Effects.c **** 		else
 300              		.loc 1 87 25 view .LVU92
 301 0060 9B1A     		subs	r3, r3, r2
 302 0062 04F80C30 		strb	r3, [r4, ip]
 303              	.L17:
  91:Core/Src/WS2812B_Effects.c **** 			frameBuffer[i*3 + 1] -= frameBuffer[i*3 + 1]/fadeOutFactor;
 304              		.loc 1 91 3 is_stmt 1 view .LVU93
  91:Core/Src/WS2812B_Effects.c **** 			frameBuffer[i*3 + 1] -= frameBuffer[i*3 + 1]/fadeOutFactor;
 305              		.loc 1 91 17 is_stmt 0 view .LVU94
 306 0066 0CF10102 		add	r2, ip, #1
 307 006a A35C     		ldrb	r3, [r4, r2]	@ zero_extendqisi2
  91:Core/Src/WS2812B_Effects.c **** 			frameBuffer[i*3 + 1] -= frameBuffer[i*3 + 1]/fadeOutFactor;
 308              		.loc 1 91 5 view .LVU95
 309 006c B342     		cmp	r3, r6
 310 006e D3D9     		bls	.L18
  92:Core/Src/WS2812B_Effects.c **** 		else
 311              		.loc 1 92 4 is_stmt 1 view .LVU96
  92:Core/Src/WS2812B_Effects.c **** 		else
 312              		.loc 1 92 48 is_stmt 0 view .LVU97
 313 0070 B3FBF6F1 		udiv	r1, r3, r6
  92:Core/Src/WS2812B_Effects.c **** 		else
 314              		.loc 1 92 25 view .LVU98
 315 0074 5B1A     		subs	r3, r3, r1
 316 0076 A354     		strb	r3, [r4, r2]
 317              	.L19:
ARM GAS  C:\Users\igorn\AppData\Local\Temp\ccCzUKZG.s 			page 9


  96:Core/Src/WS2812B_Effects.c **** 			frameBuffer[i*3 + 2] -= frameBuffer[i*3 + 2]/fadeOutFactor;
 318              		.loc 1 96 3 is_stmt 1 view .LVU99
  96:Core/Src/WS2812B_Effects.c **** 			frameBuffer[i*3 + 2] -= frameBuffer[i*3 + 2]/fadeOutFactor;
 319              		.loc 1 96 17 is_stmt 0 view .LVU100
 320 0078 0CF1020C 		add	ip, ip, #2
 321 007c 14F80C30 		ldrb	r3, [r4, ip]	@ zero_extendqisi2
  96:Core/Src/WS2812B_Effects.c **** 			frameBuffer[i*3 + 2] -= frameBuffer[i*3 + 2]/fadeOutFactor;
 322              		.loc 1 96 5 view .LVU101
 323 0080 B342     		cmp	r3, r6
 324 0082 CCD9     		bls	.L20
  97:Core/Src/WS2812B_Effects.c **** 		else
 325              		.loc 1 97 4 is_stmt 1 view .LVU102
  97:Core/Src/WS2812B_Effects.c **** 		else
 326              		.loc 1 97 48 is_stmt 0 view .LVU103
 327 0084 B3FBF6F2 		udiv	r2, r3, r6
  97:Core/Src/WS2812B_Effects.c **** 		else
 328              		.loc 1 97 25 view .LVU104
 329 0088 9B1A     		subs	r3, r3, r2
 330 008a 04F80C30 		strb	r3, [r4, ip]
 331 008e C9E7     		b	.L21
 332              	.L24:
 100:Core/Src/WS2812B_Effects.c **** 	}
 101:Core/Src/WS2812B_Effects.c **** }
 333              		.loc 1 101 1 view .LVU105
 334 0090 BDE8F081 		pop	{r4, r5, r6, r7, r8, pc}
 335              	.LVL26:
 336              	.L26:
 337              		.loc 1 101 1 view .LVU106
 338              		.align	2
 339              	.L25:
 340 0094 ABAAAAAA 		.word	-1431655765
 341              		.cfi_endproc
 342              	.LFE67:
 344              		.section	.text.visInit,"ax",%progbits
 345              		.align	1
 346              		.global	visInit
 347              		.syntax unified
 348              		.thumb
 349              		.thumb_func
 351              	visInit:
 352              	.LFB68:
 102:Core/Src/WS2812B_Effects.c **** 
 103:Core/Src/WS2812B_Effects.c **** void visInit()
 104:Core/Src/WS2812B_Effects.c **** {
 353              		.loc 1 104 1 is_stmt 1 view -0
 354              		.cfi_startproc
 355              		@ args = 0, pretend = 0, frame = 0
 356              		@ frame_needed = 0, uses_anonymous_args = 0
 357 0000 08B5     		push	{r3, lr}
 358              		.cfi_def_cfa_offset 8
 359              		.cfi_offset 3, -8
 360              		.cfi_offset 14, -4
 105:Core/Src/WS2812B_Effects.c **** 		// Set output channel/pin, GPIO_PIN_0 = 0, for GPIO_PIN_5 = 5 - this has to correspond to WS2812B
 106:Core/Src/WS2812B_Effects.c **** 		ws2812b.item[0].channel = 4;
 361              		.loc 1 106 3 view .LVU108
 362              		.loc 1 106 27 is_stmt 0 view .LVU109
 363 0002 0B4B     		ldr	r3, .L29
ARM GAS  C:\Users\igorn\AppData\Local\Temp\ccCzUKZG.s 			page 10


 364 0004 0422     		movs	r2, #4
 365 0006 1A73     		strb	r2, [r3, #12]
 107:Core/Src/WS2812B_Effects.c **** 		ws2812b.item[0].frameBufferPointer = frameBuffer1;
 366              		.loc 1 107 3 is_stmt 1 view .LVU110
 367              		.loc 1 107 38 is_stmt 0 view .LVU111
 368 0008 0A4A     		ldr	r2, .L29+4
 369 000a 1A60     		str	r2, [r3]
 108:Core/Src/WS2812B_Effects.c **** 	    ws2812b.item[0].frameBufferSize = sizeof(frameBuffer1);
 370              		.loc 1 108 6 is_stmt 1 view .LVU112
 371              		.loc 1 108 38 is_stmt 0 view .LVU113
 372 000c 4FF44072 		mov	r2, #768
 373 0010 5A60     		str	r2, [r3, #4]
 109:Core/Src/WS2812B_Effects.c **** 		ws2812b.item[1].channel = 5;
 374              		.loc 1 109 3 is_stmt 1 view .LVU114
 375              		.loc 1 109 27 is_stmt 0 view .LVU115
 376 0012 0521     		movs	r1, #5
 377 0014 1977     		strb	r1, [r3, #28]
 110:Core/Src/WS2812B_Effects.c **** 		ws2812b.item[1].frameBufferPointer = frameBuffer2;
 378              		.loc 1 110 3 is_stmt 1 view .LVU116
 379              		.loc 1 110 38 is_stmt 0 view .LVU117
 380 0016 0849     		ldr	r1, .L29+8
 381 0018 1961     		str	r1, [r3, #16]
 111:Core/Src/WS2812B_Effects.c **** 	    ws2812b.item[1].frameBufferSize = sizeof(frameBuffer2);
 382              		.loc 1 111 6 is_stmt 1 view .LVU118
 383              		.loc 1 111 38 is_stmt 0 view .LVU119
 384 001a 5A61     		str	r2, [r3, #20]
 112:Core/Src/WS2812B_Effects.c **** 		ws2812b.item[2].channel = 6;
 385              		.loc 1 112 3 is_stmt 1 view .LVU120
 386              		.loc 1 112 27 is_stmt 0 view .LVU121
 387 001c 0621     		movs	r1, #6
 388 001e 83F82C10 		strb	r1, [r3, #44]
 113:Core/Src/WS2812B_Effects.c **** 		ws2812b.item[2].frameBufferPointer = frameBuffer3;
 389              		.loc 1 113 3 is_stmt 1 view .LVU122
 390              		.loc 1 113 38 is_stmt 0 view .LVU123
 391 0022 0649     		ldr	r1, .L29+12
 392 0024 1962     		str	r1, [r3, #32]
 114:Core/Src/WS2812B_Effects.c **** 	    ws2812b.item[2].frameBufferSize = sizeof(frameBuffer3);
 393              		.loc 1 114 6 is_stmt 1 view .LVU124
 394              		.loc 1 114 38 is_stmt 0 view .LVU125
 395 0026 5A62     		str	r2, [r3, #36]
 115:Core/Src/WS2812B_Effects.c **** 	ws2812b_init();
 396              		.loc 1 115 2 is_stmt 1 view .LVU126
 397 0028 FFF7FEFF 		bl	ws2812b_init
 398              	.LVL27:
 116:Core/Src/WS2812B_Effects.c **** }
 399              		.loc 1 116 1 is_stmt 0 view .LVU127
 400 002c 08BD     		pop	{r3, pc}
 401              	.L30:
 402 002e 00BF     		.align	2
 403              	.L29:
 404 0030 00000000 		.word	ws2812b
 405 0034 00000000 		.word	frameBuffer1
 406 0038 00000000 		.word	frameBuffer2
 407 003c 00000000 		.word	frameBuffer3
 408              		.cfi_endproc
 409              	.LFE68:
 411              		.section	.text.visHandle,"ax",%progbits
ARM GAS  C:\Users\igorn\AppData\Local\Temp\ccCzUKZG.s 			page 11


 412              		.align	1
 413              		.global	visHandle
 414              		.syntax unified
 415              		.thumb
 416              		.thumb_func
 418              	visHandle:
 419              	.LFB69:
 117:Core/Src/WS2812B_Effects.c **** 
 118:Core/Src/WS2812B_Effects.c **** 
 119:Core/Src/WS2812B_Effects.c **** void visHandle()
 120:Core/Src/WS2812B_Effects.c **** {
 420              		.loc 1 120 1 is_stmt 1 view -0
 421              		.cfi_startproc
 422              		@ args = 0, pretend = 0, frame = 0
 423              		@ frame_needed = 0, uses_anonymous_args = 0
 424 0000 08B5     		push	{r3, lr}
 425              		.cfi_def_cfa_offset 8
 426              		.cfi_offset 3, -8
 427              		.cfi_offset 14, -4
 121:Core/Src/WS2812B_Effects.c **** 
 122:Core/Src/WS2812B_Effects.c **** 	if(ws2812b.transferComplete)
 428              		.loc 1 122 2 view .LVU129
 429              		.loc 1 122 12 is_stmt 0 view .LVU130
 430 0002 064B     		ldr	r3, .L35
 431 0004 93F83030 		ldrb	r3, [r3, #48]	@ zero_extendqisi2
 432              		.loc 1 122 4 view .LVU131
 433 0008 03B9     		cbnz	r3, .L34
 434              	.L31:
 123:Core/Src/WS2812B_Effects.c **** 	{
 124:Core/Src/WS2812B_Effects.c **** 		// Update your framebuffer here or swap buffers
 125:Core/Src/WS2812B_Effects.c **** 		//visHandle2();
 126:Core/Src/WS2812B_Effects.c **** 
 127:Core/Src/WS2812B_Effects.c **** 		// Signal that buffer is changed and transfer new data
 128:Core/Src/WS2812B_Effects.c **** 		ws2812b.startTransfer = 1;
 129:Core/Src/WS2812B_Effects.c **** 		ws2812b_handle();
 130:Core/Src/WS2812B_Effects.c **** 	}
 131:Core/Src/WS2812B_Effects.c **** }
 435              		.loc 1 131 1 view .LVU132
 436 000a 08BD     		pop	{r3, pc}
 437              	.L34:
 128:Core/Src/WS2812B_Effects.c **** 		ws2812b_handle();
 438              		.loc 1 128 3 is_stmt 1 view .LVU133
 128:Core/Src/WS2812B_Effects.c **** 		ws2812b_handle();
 439              		.loc 1 128 25 is_stmt 0 view .LVU134
 440 000c 034B     		ldr	r3, .L35
 441 000e 0122     		movs	r2, #1
 442 0010 83F83120 		strb	r2, [r3, #49]
 129:Core/Src/WS2812B_Effects.c **** 	}
 443              		.loc 1 129 3 is_stmt 1 view .LVU135
 444 0014 FFF7FEFF 		bl	ws2812b_handle
 445              	.LVL28:
 446              		.loc 1 131 1 is_stmt 0 view .LVU136
 447 0018 F7E7     		b	.L31
 448              	.L36:
 449 001a 00BF     		.align	2
 450              	.L35:
 451 001c 00000000 		.word	ws2812b
ARM GAS  C:\Users\igorn\AppData\Local\Temp\ccCzUKZG.s 			page 12


 452              		.cfi_endproc
 453              	.LFE69:
 455              		.section	.bss.x.0,"aw",%nobits
 458              	x.0:
 459 0000 00       		.space	1
 460              		.global	frameBuffer3
 461              		.section	.bss.frameBuffer3,"aw",%nobits
 462              		.align	2
 465              	frameBuffer3:
 466 0000 00000000 		.space	768
 466      00000000 
 466      00000000 
 466      00000000 
 466      00000000 
 467              		.global	frameBuffer2
 468              		.section	.bss.frameBuffer2,"aw",%nobits
 469              		.align	2
 472              	frameBuffer2:
 473 0000 00000000 		.space	768
 473      00000000 
 473      00000000 
 473      00000000 
 473      00000000 
 474              		.global	frameBuffer1
 475              		.section	.bss.frameBuffer1,"aw",%nobits
 476              		.align	2
 479              	frameBuffer1:
 480 0000 00000000 		.space	768
 480      00000000 
 480      00000000 
 480      00000000 
 480      00000000 
 481              		.text
 482              	.Letext0:
 483              		.file 2 "c:\\users\\igorn\\appdata\\roaming\\code\\user\\globalstorage\\bmd.stm32-for-vscode\\@xpa
 484              		.file 3 "c:\\users\\igorn\\appdata\\roaming\\code\\user\\globalstorage\\bmd.stm32-for-vscode\\@xpa
 485              		.file 4 "Core/Inc/WS2812B_Core.h"
 486              		.file 5 "c:\\users\\igorn\\appdata\\roaming\\code\\user\\globalstorage\\bmd.stm32-for-vscode\\@xpa
ARM GAS  C:\Users\igorn\AppData\Local\Temp\ccCzUKZG.s 			page 13

